
Sigfox_ST_rtos.elf:     file format elf32-littlearm

Sections:
Idx Name          Size      VMA       LMA       File off  Algn
  0 .isr_vector   000000c0  08000000  08000000  00010000  2**0
                  CONTENTS, ALLOC, LOAD, READONLY, DATA
  1 .text         00003078  080000c0  080000c0  000100c0  2**4
                  CONTENTS, ALLOC, LOAD, READONLY, CODE
  2 .rodata       0000008c  08003138  08003138  00013138  2**0
                  CONTENTS, ALLOC, LOAD, READONLY, DATA
  3 .init_array   00000004  080031c4  080031c4  000131c4  2**2
                  CONTENTS, ALLOC, LOAD, DATA
  4 .fini_array   00000004  080031c8  080031c8  000131c8  2**2
                  CONTENTS, ALLOC, LOAD, DATA
  5 .data         00000008  20000000  080031cc  00020000  2**2
                  CONTENTS, ALLOC, LOAD, DATA
  6 .bss          00000ff4  20000008  080031d4  00020008  2**2
                  ALLOC
  7 ._user_heap_stack 00000600  20000ffc  080031d4  00020ffc  2**0
                  ALLOC
  8 .ARM.attributes 00000028  00000000  00000000  00020008  2**0
                  CONTENTS, READONLY
  9 .debug_info   0002815d  00000000  00000000  00020030  2**0
                  CONTENTS, READONLY, DEBUGGING
 10 .debug_abbrev 00004cbf  00000000  00000000  0004818d  2**0
                  CONTENTS, READONLY, DEBUGGING
 11 .debug_loc    0000a83e  00000000  00000000  0004ce4c  2**0
                  CONTENTS, READONLY, DEBUGGING
 12 .debug_aranges 00000fb8  00000000  00000000  00057690  2**3
                  CONTENTS, READONLY, DEBUGGING
 13 .debug_ranges 00001548  00000000  00000000  00058648  2**3
                  CONTENTS, READONLY, DEBUGGING
 14 .debug_line   00009a29  00000000  00000000  00059b90  2**0
                  CONTENTS, READONLY, DEBUGGING
 15 .debug_str    00005686  00000000  00000000  000635b9  2**0
                  CONTENTS, READONLY, DEBUGGING
 16 .comment      0000007c  00000000  00000000  00068c3f  2**0
                  CONTENTS, READONLY
 17 .debug_frame  00002a64  00000000  00000000  00068cbc  2**2
                  CONTENTS, READONLY, DEBUGGING

Disassembly of section .text:

080000c0 <__do_global_dtors_aux>:
 80000c0:	b510      	push	{r4, lr}
 80000c2:	4c06      	ldr	r4, [pc, #24]	; (80000dc <__do_global_dtors_aux+0x1c>)
 80000c4:	7823      	ldrb	r3, [r4, #0]
 80000c6:	2b00      	cmp	r3, #0
 80000c8:	d107      	bne.n	80000da <__do_global_dtors_aux+0x1a>
 80000ca:	4b05      	ldr	r3, [pc, #20]	; (80000e0 <__do_global_dtors_aux+0x20>)
 80000cc:	2b00      	cmp	r3, #0
 80000ce:	d002      	beq.n	80000d6 <__do_global_dtors_aux+0x16>
 80000d0:	4804      	ldr	r0, [pc, #16]	; (80000e4 <__do_global_dtors_aux+0x24>)
 80000d2:	e000      	b.n	80000d6 <__do_global_dtors_aux+0x16>
 80000d4:	bf00      	nop
 80000d6:	2301      	movs	r3, #1
 80000d8:	7023      	strb	r3, [r4, #0]
 80000da:	bd10      	pop	{r4, pc}
 80000dc:	20000008 	.word	0x20000008
 80000e0:	00000000 	.word	0x00000000
 80000e4:	08003120 	.word	0x08003120

080000e8 <frame_dummy>:
 80000e8:	4b04      	ldr	r3, [pc, #16]	; (80000fc <frame_dummy+0x14>)
 80000ea:	b510      	push	{r4, lr}
 80000ec:	2b00      	cmp	r3, #0
 80000ee:	d003      	beq.n	80000f8 <frame_dummy+0x10>
 80000f0:	4903      	ldr	r1, [pc, #12]	; (8000100 <frame_dummy+0x18>)
 80000f2:	4804      	ldr	r0, [pc, #16]	; (8000104 <frame_dummy+0x1c>)
 80000f4:	e000      	b.n	80000f8 <frame_dummy+0x10>
 80000f6:	bf00      	nop
 80000f8:	bd10      	pop	{r4, pc}
 80000fa:	46c0      	nop			; (mov r8, r8)
 80000fc:	00000000 	.word	0x00000000
 8000100:	2000000c 	.word	0x2000000c
 8000104:	08003120 	.word	0x08003120

08000108 <strlen>:
 8000108:	2300      	movs	r3, #0
 800010a:	5cc2      	ldrb	r2, [r0, r3]
 800010c:	3301      	adds	r3, #1
 800010e:	2a00      	cmp	r2, #0
 8000110:	d1fb      	bne.n	800010a <strlen+0x2>
 8000112:	1e58      	subs	r0, r3, #1
 8000114:	4770      	bx	lr
	...

08000118 <__gnu_thumb1_case_sqi>:
 8000118:	b402      	push	{r1}
 800011a:	4671      	mov	r1, lr
 800011c:	0849      	lsrs	r1, r1, #1
 800011e:	0049      	lsls	r1, r1, #1
 8000120:	5609      	ldrsb	r1, [r1, r0]
 8000122:	0049      	lsls	r1, r1, #1
 8000124:	448e      	add	lr, r1
 8000126:	bc02      	pop	{r1}
 8000128:	4770      	bx	lr
 800012a:	46c0      	nop			; (mov r8, r8)

0800012c <__gnu_thumb1_case_uqi>:
 800012c:	b402      	push	{r1}
 800012e:	4671      	mov	r1, lr
 8000130:	0849      	lsrs	r1, r1, #1
 8000132:	0049      	lsls	r1, r1, #1
 8000134:	5c09      	ldrb	r1, [r1, r0]
 8000136:	0049      	lsls	r1, r1, #1
 8000138:	448e      	add	lr, r1
 800013a:	bc02      	pop	{r1}
 800013c:	4770      	bx	lr
 800013e:	46c0      	nop			; (mov r8, r8)

08000140 <__udivsi3>:
 8000140:	2200      	movs	r2, #0
 8000142:	0843      	lsrs	r3, r0, #1
 8000144:	428b      	cmp	r3, r1
 8000146:	d374      	bcc.n	8000232 <__udivsi3+0xf2>
 8000148:	0903      	lsrs	r3, r0, #4
 800014a:	428b      	cmp	r3, r1
 800014c:	d35f      	bcc.n	800020e <__udivsi3+0xce>
 800014e:	0a03      	lsrs	r3, r0, #8
 8000150:	428b      	cmp	r3, r1
 8000152:	d344      	bcc.n	80001de <__udivsi3+0x9e>
 8000154:	0b03      	lsrs	r3, r0, #12
 8000156:	428b      	cmp	r3, r1
 8000158:	d328      	bcc.n	80001ac <__udivsi3+0x6c>
 800015a:	0c03      	lsrs	r3, r0, #16
 800015c:	428b      	cmp	r3, r1
 800015e:	d30d      	bcc.n	800017c <__udivsi3+0x3c>
 8000160:	22ff      	movs	r2, #255	; 0xff
 8000162:	0209      	lsls	r1, r1, #8
 8000164:	ba12      	rev	r2, r2
 8000166:	0c03      	lsrs	r3, r0, #16
 8000168:	428b      	cmp	r3, r1
 800016a:	d302      	bcc.n	8000172 <__udivsi3+0x32>
 800016c:	1212      	asrs	r2, r2, #8
 800016e:	0209      	lsls	r1, r1, #8
 8000170:	d065      	beq.n	800023e <__udivsi3+0xfe>
 8000172:	0b03      	lsrs	r3, r0, #12
 8000174:	428b      	cmp	r3, r1
 8000176:	d319      	bcc.n	80001ac <__udivsi3+0x6c>
 8000178:	e000      	b.n	800017c <__udivsi3+0x3c>
 800017a:	0a09      	lsrs	r1, r1, #8
 800017c:	0bc3      	lsrs	r3, r0, #15
 800017e:	428b      	cmp	r3, r1
 8000180:	d301      	bcc.n	8000186 <__udivsi3+0x46>
 8000182:	03cb      	lsls	r3, r1, #15
 8000184:	1ac0      	subs	r0, r0, r3
 8000186:	4152      	adcs	r2, r2
 8000188:	0b83      	lsrs	r3, r0, #14
 800018a:	428b      	cmp	r3, r1
 800018c:	d301      	bcc.n	8000192 <__udivsi3+0x52>
 800018e:	038b      	lsls	r3, r1, #14
 8000190:	1ac0      	subs	r0, r0, r3
 8000192:	4152      	adcs	r2, r2
 8000194:	0b43      	lsrs	r3, r0, #13
 8000196:	428b      	cmp	r3, r1
 8000198:	d301      	bcc.n	800019e <__udivsi3+0x5e>
 800019a:	034b      	lsls	r3, r1, #13
 800019c:	1ac0      	subs	r0, r0, r3
 800019e:	4152      	adcs	r2, r2
 80001a0:	0b03      	lsrs	r3, r0, #12
 80001a2:	428b      	cmp	r3, r1
 80001a4:	d301      	bcc.n	80001aa <__udivsi3+0x6a>
 80001a6:	030b      	lsls	r3, r1, #12
 80001a8:	1ac0      	subs	r0, r0, r3
 80001aa:	4152      	adcs	r2, r2
 80001ac:	0ac3      	lsrs	r3, r0, #11
 80001ae:	428b      	cmp	r3, r1
 80001b0:	d301      	bcc.n	80001b6 <__udivsi3+0x76>
 80001b2:	02cb      	lsls	r3, r1, #11
 80001b4:	1ac0      	subs	r0, r0, r3
 80001b6:	4152      	adcs	r2, r2
 80001b8:	0a83      	lsrs	r3, r0, #10
 80001ba:	428b      	cmp	r3, r1
 80001bc:	d301      	bcc.n	80001c2 <__udivsi3+0x82>
 80001be:	028b      	lsls	r3, r1, #10
 80001c0:	1ac0      	subs	r0, r0, r3
 80001c2:	4152      	adcs	r2, r2
 80001c4:	0a43      	lsrs	r3, r0, #9
 80001c6:	428b      	cmp	r3, r1
 80001c8:	d301      	bcc.n	80001ce <__udivsi3+0x8e>
 80001ca:	024b      	lsls	r3, r1, #9
 80001cc:	1ac0      	subs	r0, r0, r3
 80001ce:	4152      	adcs	r2, r2
 80001d0:	0a03      	lsrs	r3, r0, #8
 80001d2:	428b      	cmp	r3, r1
 80001d4:	d301      	bcc.n	80001da <__udivsi3+0x9a>
 80001d6:	020b      	lsls	r3, r1, #8
 80001d8:	1ac0      	subs	r0, r0, r3
 80001da:	4152      	adcs	r2, r2
 80001dc:	d2cd      	bcs.n	800017a <__udivsi3+0x3a>
 80001de:	09c3      	lsrs	r3, r0, #7
 80001e0:	428b      	cmp	r3, r1
 80001e2:	d301      	bcc.n	80001e8 <__udivsi3+0xa8>
 80001e4:	01cb      	lsls	r3, r1, #7
 80001e6:	1ac0      	subs	r0, r0, r3
 80001e8:	4152      	adcs	r2, r2
 80001ea:	0983      	lsrs	r3, r0, #6
 80001ec:	428b      	cmp	r3, r1
 80001ee:	d301      	bcc.n	80001f4 <__udivsi3+0xb4>
 80001f0:	018b      	lsls	r3, r1, #6
 80001f2:	1ac0      	subs	r0, r0, r3
 80001f4:	4152      	adcs	r2, r2
 80001f6:	0943      	lsrs	r3, r0, #5
 80001f8:	428b      	cmp	r3, r1
 80001fa:	d301      	bcc.n	8000200 <__udivsi3+0xc0>
 80001fc:	014b      	lsls	r3, r1, #5
 80001fe:	1ac0      	subs	r0, r0, r3
 8000200:	4152      	adcs	r2, r2
 8000202:	0903      	lsrs	r3, r0, #4
 8000204:	428b      	cmp	r3, r1
 8000206:	d301      	bcc.n	800020c <__udivsi3+0xcc>
 8000208:	010b      	lsls	r3, r1, #4
 800020a:	1ac0      	subs	r0, r0, r3
 800020c:	4152      	adcs	r2, r2
 800020e:	08c3      	lsrs	r3, r0, #3
 8000210:	428b      	cmp	r3, r1
 8000212:	d301      	bcc.n	8000218 <__udivsi3+0xd8>
 8000214:	00cb      	lsls	r3, r1, #3
 8000216:	1ac0      	subs	r0, r0, r3
 8000218:	4152      	adcs	r2, r2
 800021a:	0883      	lsrs	r3, r0, #2
 800021c:	428b      	cmp	r3, r1
 800021e:	d301      	bcc.n	8000224 <__udivsi3+0xe4>
 8000220:	008b      	lsls	r3, r1, #2
 8000222:	1ac0      	subs	r0, r0, r3
 8000224:	4152      	adcs	r2, r2
 8000226:	0843      	lsrs	r3, r0, #1
 8000228:	428b      	cmp	r3, r1
 800022a:	d301      	bcc.n	8000230 <__udivsi3+0xf0>
 800022c:	004b      	lsls	r3, r1, #1
 800022e:	1ac0      	subs	r0, r0, r3
 8000230:	4152      	adcs	r2, r2
 8000232:	1a41      	subs	r1, r0, r1
 8000234:	d200      	bcs.n	8000238 <__udivsi3+0xf8>
 8000236:	4601      	mov	r1, r0
 8000238:	4152      	adcs	r2, r2
 800023a:	4610      	mov	r0, r2
 800023c:	4770      	bx	lr
 800023e:	e7ff      	b.n	8000240 <__udivsi3+0x100>
 8000240:	b501      	push	{r0, lr}
 8000242:	2000      	movs	r0, #0
 8000244:	f000 f806 	bl	8000254 <__aeabi_idiv0>
 8000248:	bd02      	pop	{r1, pc}
 800024a:	46c0      	nop			; (mov r8, r8)

0800024c <__aeabi_uidivmod>:
 800024c:	2900      	cmp	r1, #0
 800024e:	d0f7      	beq.n	8000240 <__udivsi3+0x100>
 8000250:	e776      	b.n	8000140 <__udivsi3>
 8000252:	4770      	bx	lr

08000254 <__aeabi_idiv0>:
 8000254:	4770      	bx	lr
 8000256:	46c0      	nop			; (mov r8, r8)

08000258 <HAL_InitTick>:
  *       implementation  in user file.
  * @param TickPriority Tick interrupt priority.
  * @retval HAL status
  */
__weak HAL_StatusTypeDef HAL_InitTick(uint32_t TickPriority)
{
 8000258:	b510      	push	{r4, lr}
 800025a:	0004      	movs	r4, r0
  /*Configure the SysTick to have interrupt in 1ms time basis*/
  HAL_SYSTICK_Config(HAL_RCC_GetHCLKFreq()/1000U);
 800025c:	f000 fc60 	bl	8000b20 <HAL_RCC_GetHCLKFreq>
 8000260:	21fa      	movs	r1, #250	; 0xfa
 8000262:	0089      	lsls	r1, r1, #2
 8000264:	f7ff ff6c 	bl	8000140 <__udivsi3>
 8000268:	f000 f870 	bl	800034c <HAL_SYSTICK_Config>

  /*Configure the SysTick IRQ priority */
  HAL_NVIC_SetPriority(SysTick_IRQn, TickPriority ,0U);
 800026c:	2001      	movs	r0, #1
 800026e:	2200      	movs	r2, #0
 8000270:	0021      	movs	r1, r4
 8000272:	4240      	negs	r0, r0
 8000274:	f000 f830 	bl	80002d8 <HAL_NVIC_SetPriority>

   /* Return function status */
  return HAL_OK;
}
 8000278:	2000      	movs	r0, #0
 800027a:	bd10      	pop	{r4, pc}

0800027c <HAL_Init>:
  __HAL_FLASH_PREFETCH_BUFFER_ENABLE();
 800027c:	2310      	movs	r3, #16
 800027e:	4a06      	ldr	r2, [pc, #24]	; (8000298 <HAL_Init+0x1c>)
{
 8000280:	b510      	push	{r4, lr}
  __HAL_FLASH_PREFETCH_BUFFER_ENABLE();
 8000282:	6811      	ldr	r1, [r2, #0]
  HAL_InitTick(TICK_INT_PRIORITY);
 8000284:	2003      	movs	r0, #3
  __HAL_FLASH_PREFETCH_BUFFER_ENABLE();
 8000286:	430b      	orrs	r3, r1
 8000288:	6013      	str	r3, [r2, #0]
  HAL_InitTick(TICK_INT_PRIORITY);
 800028a:	f7ff ffe5 	bl	8000258 <HAL_InitTick>
  HAL_MspInit();
 800028e:	f002 fdd9 	bl	8002e44 <HAL_MspInit>
}
 8000292:	2000      	movs	r0, #0
 8000294:	bd10      	pop	{r4, pc}
 8000296:	46c0      	nop			; (mov r8, r8)
 8000298:	40022000 	.word	0x40022000

0800029c <HAL_IncTick>:
  *       implementations in user file.
  * @retval None
  */
__weak void HAL_IncTick(void)
{
  uwTick++;
 800029c:	4a02      	ldr	r2, [pc, #8]	; (80002a8 <HAL_IncTick+0xc>)
 800029e:	6813      	ldr	r3, [r2, #0]
 80002a0:	3301      	adds	r3, #1
 80002a2:	6013      	str	r3, [r2, #0]
}
 80002a4:	4770      	bx	lr
 80002a6:	46c0      	nop			; (mov r8, r8)
 80002a8:	20000d78 	.word	0x20000d78

080002ac <HAL_GetTick>:
  *       implementations in user file.
  * @retval tick value
  */
__weak uint32_t HAL_GetTick(void)
{
  return uwTick;
 80002ac:	4b01      	ldr	r3, [pc, #4]	; (80002b4 <HAL_GetTick+0x8>)
 80002ae:	6818      	ldr	r0, [r3, #0]
}
 80002b0:	4770      	bx	lr
 80002b2:	46c0      	nop			; (mov r8, r8)
 80002b4:	20000d78 	.word	0x20000d78

080002b8 <HAL_Delay>:
  *       implementations in user file.
  * @param Delay specifies the delay time length, in milliseconds.
  * @retval None
  */
__weak void HAL_Delay(__IO uint32_t Delay)
{
 80002b8:	b537      	push	{r0, r1, r2, r4, r5, lr}
 80002ba:	9001      	str	r0, [sp, #4]
  uint32_t tickstart = HAL_GetTick();
 80002bc:	f7ff fff6 	bl	80002ac <HAL_GetTick>
  uint32_t wait = Delay;
 80002c0:	9c01      	ldr	r4, [sp, #4]
  uint32_t tickstart = HAL_GetTick();
 80002c2:	0005      	movs	r5, r0
  
  /* Add a period to guarantee minimum wait */
  if (wait < HAL_MAX_DELAY)
  {
     wait++;
 80002c4:	1c63      	adds	r3, r4, #1
 80002c6:	1e5a      	subs	r2, r3, #1
 80002c8:	4193      	sbcs	r3, r2
 80002ca:	18e4      	adds	r4, r4, r3
  }
  
  while((HAL_GetTick() - tickstart) < wait)
 80002cc:	f7ff ffee 	bl	80002ac <HAL_GetTick>
 80002d0:	1b40      	subs	r0, r0, r5
 80002d2:	42a0      	cmp	r0, r4
 80002d4:	d3fa      	bcc.n	80002cc <HAL_Delay+0x14>
  {
  }
}
 80002d6:	bd37      	pop	{r0, r1, r2, r4, r5, pc}

080002d8 <HAL_NVIC_SetPriority>:
  *         with stm32f0xx devices, this parameter is a dummy value and it is ignored, because 
  *         no subpriority supported in Cortex M0 based products.   
  * @retval None
  */
void HAL_NVIC_SetPriority(IRQn_Type IRQn, uint32_t PreemptPriority, uint32_t SubPriority)
{ 
 80002d8:	b570      	push	{r4, r5, r6, lr}
 80002da:	0189      	lsls	r1, r1, #6
  \param [in]      IRQn  Interrupt number.
  \param [in]  priority  Priority to set.
 */
__STATIC_INLINE void NVIC_SetPriority(IRQn_Type IRQn, uint32_t priority)
{
  if ((int32_t)(IRQn) < 0)
 80002dc:	2800      	cmp	r0, #0
 80002de:	da14      	bge.n	800030a <HAL_NVIC_SetPriority+0x32>
  {
    SCB->SHP[_SHP_IDX(IRQn)] = ((uint32_t)(SCB->SHP[_SHP_IDX(IRQn)] & ~(0xFFUL << _BIT_SHIFT(IRQn))) |
 80002e0:	230f      	movs	r3, #15
 80002e2:	b2c0      	uxtb	r0, r0
 80002e4:	4003      	ands	r3, r0
 80002e6:	3b08      	subs	r3, #8
 80002e8:	4a11      	ldr	r2, [pc, #68]	; (8000330 <HAL_NVIC_SetPriority+0x58>)
 80002ea:	089b      	lsrs	r3, r3, #2
 80002ec:	009b      	lsls	r3, r3, #2
 80002ee:	189b      	adds	r3, r3, r2
 80002f0:	2203      	movs	r2, #3
 80002f2:	4010      	ands	r0, r2
 80002f4:	4090      	lsls	r0, r2
 80002f6:	32fc      	adds	r2, #252	; 0xfc
 80002f8:	0015      	movs	r5, r2
       (((priority << (8U - __NVIC_PRIO_BITS)) & (uint32_t)0xFFUL) << _BIT_SHIFT(IRQn)));
 80002fa:	4011      	ands	r1, r2
    SCB->SHP[_SHP_IDX(IRQn)] = ((uint32_t)(SCB->SHP[_SHP_IDX(IRQn)] & ~(0xFFUL << _BIT_SHIFT(IRQn))) |
 80002fc:	4085      	lsls	r5, r0
       (((priority << (8U - __NVIC_PRIO_BITS)) & (uint32_t)0xFFUL) << _BIT_SHIFT(IRQn)));
 80002fe:	4081      	lsls	r1, r0
    SCB->SHP[_SHP_IDX(IRQn)] = ((uint32_t)(SCB->SHP[_SHP_IDX(IRQn)] & ~(0xFFUL << _BIT_SHIFT(IRQn))) |
 8000300:	69dc      	ldr	r4, [r3, #28]
 8000302:	43ac      	bics	r4, r5
 8000304:	4321      	orrs	r1, r4
 8000306:	61d9      	str	r1, [r3, #28]
  /* Check the parameters */
  assert_param(IS_NVIC_PREEMPTION_PRIORITY(PreemptPriority));
  NVIC_SetPriority(IRQn,PreemptPriority);
}
 8000308:	bd70      	pop	{r4, r5, r6, pc}
  }
  else
  {
    NVIC->IP[_IP_IDX(IRQn)]  = ((uint32_t)(NVIC->IP[_IP_IDX(IRQn)]  & ~(0xFFUL << _BIT_SHIFT(IRQn))) |
 800030a:	2503      	movs	r5, #3
 800030c:	0883      	lsrs	r3, r0, #2
 800030e:	4028      	ands	r0, r5
 8000310:	40a8      	lsls	r0, r5
 8000312:	35fc      	adds	r5, #252	; 0xfc
 8000314:	002e      	movs	r6, r5
 8000316:	4a07      	ldr	r2, [pc, #28]	; (8000334 <HAL_NVIC_SetPriority+0x5c>)
 8000318:	009b      	lsls	r3, r3, #2
 800031a:	189b      	adds	r3, r3, r2
 800031c:	22c0      	movs	r2, #192	; 0xc0
 800031e:	4086      	lsls	r6, r0
       (((priority << (8U - __NVIC_PRIO_BITS)) & (uint32_t)0xFFUL) << _BIT_SHIFT(IRQn)));
 8000320:	4029      	ands	r1, r5
 8000322:	4081      	lsls	r1, r0
    NVIC->IP[_IP_IDX(IRQn)]  = ((uint32_t)(NVIC->IP[_IP_IDX(IRQn)]  & ~(0xFFUL << _BIT_SHIFT(IRQn))) |
 8000324:	0092      	lsls	r2, r2, #2
 8000326:	589c      	ldr	r4, [r3, r2]
 8000328:	43b4      	bics	r4, r6
 800032a:	4321      	orrs	r1, r4
 800032c:	5099      	str	r1, [r3, r2]
 800032e:	e7eb      	b.n	8000308 <HAL_NVIC_SetPriority+0x30>
 8000330:	e000ed00 	.word	0xe000ed00
 8000334:	e000e100 	.word	0xe000e100

08000338 <HAL_NVIC_EnableIRQ>:
  NVIC->ISER[0U] = (uint32_t)(1UL << (((uint32_t)(int32_t)IRQn) & 0x1FUL));
 8000338:	231f      	movs	r3, #31
 800033a:	4018      	ands	r0, r3
 800033c:	3b1e      	subs	r3, #30
 800033e:	4083      	lsls	r3, r0
 8000340:	4a01      	ldr	r2, [pc, #4]	; (8000348 <HAL_NVIC_EnableIRQ+0x10>)
 8000342:	6013      	str	r3, [r2, #0]
  /* Check the parameters */
  assert_param(IS_NVIC_DEVICE_IRQ(IRQn));
  
  /* Enable interrupt */
  NVIC_EnableIRQ(IRQn);
}
 8000344:	4770      	bx	lr
 8000346:	46c0      	nop			; (mov r8, r8)
 8000348:	e000e100 	.word	0xe000e100

0800034c <HAL_SYSTICK_Config>:
           function <b>SysTick_Config</b> is not included. In this case, the file <b><i>device</i>.h</b>
           must contain a vendor-specific implementation of this function.
 */
__STATIC_INLINE uint32_t SysTick_Config(uint32_t ticks)
{
  if ((ticks - 1UL) > SysTick_LOAD_RELOAD_Msk)
 800034c:	4a09      	ldr	r2, [pc, #36]	; (8000374 <HAL_SYSTICK_Config+0x28>)
 800034e:	1e43      	subs	r3, r0, #1
  {
    return (1UL);                                                   /* Reload value impossible */
 8000350:	2001      	movs	r0, #1
  if ((ticks - 1UL) > SysTick_LOAD_RELOAD_Msk)
 8000352:	4293      	cmp	r3, r2
 8000354:	d80d      	bhi.n	8000372 <HAL_SYSTICK_Config+0x26>
    SCB->SHP[_SHP_IDX(IRQn)] = ((uint32_t)(SCB->SHP[_SHP_IDX(IRQn)] & ~(0xFFUL << _BIT_SHIFT(IRQn))) |
 8000356:	21c0      	movs	r1, #192	; 0xc0
  }

  SysTick->LOAD  = (uint32_t)(ticks - 1UL);                         /* set reload register */
 8000358:	4a07      	ldr	r2, [pc, #28]	; (8000378 <HAL_SYSTICK_Config+0x2c>)
    SCB->SHP[_SHP_IDX(IRQn)] = ((uint32_t)(SCB->SHP[_SHP_IDX(IRQn)] & ~(0xFFUL << _BIT_SHIFT(IRQn))) |
 800035a:	4808      	ldr	r0, [pc, #32]	; (800037c <HAL_SYSTICK_Config+0x30>)
  SysTick->LOAD  = (uint32_t)(ticks - 1UL);                         /* set reload register */
 800035c:	6053      	str	r3, [r2, #4]
    SCB->SHP[_SHP_IDX(IRQn)] = ((uint32_t)(SCB->SHP[_SHP_IDX(IRQn)] & ~(0xFFUL << _BIT_SHIFT(IRQn))) |
 800035e:	6a03      	ldr	r3, [r0, #32]
 8000360:	0609      	lsls	r1, r1, #24
 8000362:	021b      	lsls	r3, r3, #8
 8000364:	0a1b      	lsrs	r3, r3, #8
 8000366:	430b      	orrs	r3, r1
 8000368:	6203      	str	r3, [r0, #32]
  NVIC_SetPriority (SysTick_IRQn, (1UL << __NVIC_PRIO_BITS) - 1UL); /* set Priority for Systick Interrupt */
  SysTick->VAL   = 0UL;                                             /* Load the SysTick Counter Value */
 800036a:	2000      	movs	r0, #0
  SysTick->CTRL  = SysTick_CTRL_CLKSOURCE_Msk |
 800036c:	2307      	movs	r3, #7
  SysTick->VAL   = 0UL;                                             /* Load the SysTick Counter Value */
 800036e:	6090      	str	r0, [r2, #8]
  SysTick->CTRL  = SysTick_CTRL_CLKSOURCE_Msk |
 8000370:	6013      	str	r3, [r2, #0]
  *                  - 1  Function failed.
  */
uint32_t HAL_SYSTICK_Config(uint32_t TicksNumb)
{
   return SysTick_Config(TicksNumb);
}
 8000372:	4770      	bx	lr
 8000374:	00ffffff 	.word	0x00ffffff
 8000378:	e000e010 	.word	0xe000e010
 800037c:	e000ed00 	.word	0xe000ed00

08000380 <HAL_SYSTICK_IRQHandler>:
/**
  * @brief  This function handles SYSTICK interrupt request.
  * @retval None
  */
void HAL_SYSTICK_IRQHandler(void)
{
 8000380:	b510      	push	{r4, lr}
  HAL_SYSTICK_Callback();
 8000382:	f002 f9b7 	bl	80026f4 <HAL_SYSTICK_Callback>
}
 8000386:	bd10      	pop	{r4, pc}

08000388 <HAL_DMA_Init>:
  * @param  hdma Pointer to a DMA_HandleTypeDef structure that contains
  *               the configuration information for the specified DMA Channel.  
  * @retval HAL status
  */
HAL_StatusTypeDef HAL_DMA_Init(DMA_HandleTypeDef *hdma)
{ 
 8000388:	b570      	push	{r4, r5, r6, lr}
 800038a:	0004      	movs	r4, r0
  uint32_t tmp = 0U;
  
  /* Check the DMA handle allocation */
  if(NULL == hdma)
  {
    return HAL_ERROR;
 800038c:	2001      	movs	r0, #1
  if(NULL == hdma)
 800038e:	2c00      	cmp	r4, #0
 8000390:	d028      	beq.n	80003e4 <HAL_DMA_Init+0x5c>
  assert_param(IS_DMA_MEMORY_DATA_SIZE(hdma->Init.MemDataAlignment));
  assert_param(IS_DMA_MODE(hdma->Init.Mode));
  assert_param(IS_DMA_PRIORITY(hdma->Init.Priority));
  
  /* Change DMA peripheral state */
  hdma->State = HAL_DMA_STATE_BUSY;
 8000392:	2302      	movs	r3, #2

  /* Get the CR register value */
  tmp = hdma->Instance->CCR;
 8000394:	6820      	ldr	r0, [r4, #0]
  hdma->State = HAL_DMA_STATE_BUSY;
 8000396:	1ca5      	adds	r5, r4, #2
 8000398:	77eb      	strb	r3, [r5, #31]
  tmp = hdma->Instance->CCR;
 800039a:	6802      	ldr	r2, [r0, #0]
  
  /* Clear PL, MSIZE, PSIZE, MINC, PINC, CIRC, DIR bits */
  tmp &= ((uint32_t)~(DMA_CCR_PL    | DMA_CCR_MSIZE  | DMA_CCR_PSIZE  | \
 800039c:	4b12      	ldr	r3, [pc, #72]	; (80003e8 <HAL_DMA_Init+0x60>)
                      DMA_CCR_MINC  | DMA_CCR_PINC   | DMA_CCR_CIRC   | \
                      DMA_CCR_DIR));
  
  /* Prepare the DMA Channel configuration */
  tmp |=  hdma->Init.Direction        |
 800039e:	68a1      	ldr	r1, [r4, #8]
  tmp &= ((uint32_t)~(DMA_CCR_PL    | DMA_CCR_MSIZE  | DMA_CCR_PSIZE  | \
 80003a0:	401a      	ands	r2, r3
  tmp |=  hdma->Init.Direction        |
 80003a2:	6863      	ldr	r3, [r4, #4]
 80003a4:	430b      	orrs	r3, r1
          hdma->Init.PeriphInc           | hdma->Init.MemInc           |
 80003a6:	68e1      	ldr	r1, [r4, #12]
 80003a8:	430b      	orrs	r3, r1
 80003aa:	6921      	ldr	r1, [r4, #16]
 80003ac:	430b      	orrs	r3, r1
          hdma->Init.PeriphDataAlignment | hdma->Init.MemDataAlignment |
 80003ae:	6961      	ldr	r1, [r4, #20]
 80003b0:	430b      	orrs	r3, r1
 80003b2:	69a1      	ldr	r1, [r4, #24]
 80003b4:	430b      	orrs	r3, r1
          hdma->Init.Mode                | hdma->Init.Priority;
 80003b6:	69e1      	ldr	r1, [r4, #28]
 80003b8:	430b      	orrs	r3, r1
  tmp |=  hdma->Init.Direction        |
 80003ba:	4313      	orrs	r3, r2

  /* Write to DMA Channel CR register */
  hdma->Instance->CCR = tmp;  
 80003bc:	6003      	str	r3, [r0, #0]
    hdma->DmaBaseAddress = DMA2;
  }
#else
  /* calculation of the channel index */
  /* DMA1 */
  hdma->ChannelIndex = (((uint32_t)hdma->Instance - (uint32_t)DMA1_Channel1) / ((uint32_t)DMA1_Channel2 - (uint32_t)DMA1_Channel1)) << 2U;
 80003be:	4b0b      	ldr	r3, [pc, #44]	; (80003ec <HAL_DMA_Init+0x64>)
 80003c0:	2114      	movs	r1, #20
 80003c2:	18c0      	adds	r0, r0, r3
 80003c4:	f7ff febc 	bl	8000140 <__udivsi3>
  hdma->DmaBaseAddress = DMA1;
 80003c8:	4b09      	ldr	r3, [pc, #36]	; (80003f0 <HAL_DMA_Init+0x68>)
  hdma->ChannelIndex = (((uint32_t)hdma->Instance - (uint32_t)DMA1_Channel1) / ((uint32_t)DMA1_Channel2 - (uint32_t)DMA1_Channel1)) << 2U;
 80003ca:	0080      	lsls	r0, r0, #2
 80003cc:	6420      	str	r0, [r4, #64]	; 0x40
  hdma->DmaBaseAddress = DMA1;
 80003ce:	63e3      	str	r3, [r4, #60]	; 0x3c
  hdma->XferCpltCallback = NULL;
 80003d0:	2000      	movs	r0, #0
  hdma->State = HAL_DMA_STATE_READY;
 80003d2:	2301      	movs	r3, #1
  hdma->XferCpltCallback = NULL;
 80003d4:	62a0      	str	r0, [r4, #40]	; 0x28
  hdma->XferHalfCpltCallback = NULL;
 80003d6:	62e0      	str	r0, [r4, #44]	; 0x2c
  hdma->XferErrorCallback = NULL;
 80003d8:	6320      	str	r0, [r4, #48]	; 0x30
  hdma->XferAbortCallback = NULL;
 80003da:	6360      	str	r0, [r4, #52]	; 0x34
  hdma->ErrorCode = HAL_DMA_ERROR_NONE;
 80003dc:	63a0      	str	r0, [r4, #56]	; 0x38
  hdma->Lock = HAL_UNLOCKED;
 80003de:	18e4      	adds	r4, r4, r3
  hdma->State = HAL_DMA_STATE_READY;
 80003e0:	77eb      	strb	r3, [r5, #31]
  hdma->Lock = HAL_UNLOCKED;
 80003e2:	77e0      	strb	r0, [r4, #31]
}  
 80003e4:	bd70      	pop	{r4, r5, r6, pc}
 80003e6:	46c0      	nop			; (mov r8, r8)
 80003e8:	ffffc00f 	.word	0xffffc00f
 80003ec:	bffdfff8 	.word	0xbffdfff8
 80003f0:	40020000 	.word	0x40020000

080003f4 <HAL_DMA_Abort_IT>:
{  
 80003f4:	b570      	push	{r4, r5, r6, lr}
  if(HAL_DMA_STATE_BUSY != hdma->State)
 80003f6:	1c84      	adds	r4, r0, #2
 80003f8:	7fe3      	ldrb	r3, [r4, #31]
 80003fa:	2b02      	cmp	r3, #2
 80003fc:	d004      	beq.n	8000408 <HAL_DMA_Abort_IT+0x14>
    hdma->ErrorCode = HAL_DMA_ERROR_NO_XFER;
 80003fe:	2304      	movs	r3, #4
 8000400:	6383      	str	r3, [r0, #56]	; 0x38
    status = HAL_ERROR;
 8000402:	3b03      	subs	r3, #3
}
 8000404:	0018      	movs	r0, r3
 8000406:	bd70      	pop	{r4, r5, r6, pc}
    hdma->Instance->CCR &= ~(DMA_IT_TC | DMA_IT_HT | DMA_IT_TE);
 8000408:	210e      	movs	r1, #14
 800040a:	6803      	ldr	r3, [r0, #0]
    hdma->DmaBaseAddress->IFCR = DMA_FLAG_GL1 << hdma->ChannelIndex;
 800040c:	6c05      	ldr	r5, [r0, #64]	; 0x40
    hdma->Instance->CCR &= ~(DMA_IT_TC | DMA_IT_HT | DMA_IT_TE);
 800040e:	681a      	ldr	r2, [r3, #0]
 8000410:	438a      	bics	r2, r1
 8000412:	601a      	str	r2, [r3, #0]
    hdma->Instance->CCR &= ~DMA_CCR_EN;
 8000414:	2201      	movs	r2, #1
 8000416:	6819      	ldr	r1, [r3, #0]
 8000418:	4391      	bics	r1, r2
 800041a:	6019      	str	r1, [r3, #0]
    hdma->DmaBaseAddress->IFCR = DMA_FLAG_GL1 << hdma->ChannelIndex;
 800041c:	0011      	movs	r1, r2
 800041e:	40a9      	lsls	r1, r5
 8000420:	6bc3      	ldr	r3, [r0, #60]	; 0x3c
 8000422:	6059      	str	r1, [r3, #4]
    hdma->State = HAL_DMA_STATE_READY;
 8000424:	77e2      	strb	r2, [r4, #31]
    __HAL_UNLOCK(hdma);
 8000426:	2400      	movs	r4, #0
 8000428:	1883      	adds	r3, r0, r2
    if(hdma->XferAbortCallback != NULL)
 800042a:	6b42      	ldr	r2, [r0, #52]	; 0x34
    __HAL_UNLOCK(hdma);
 800042c:	77dc      	strb	r4, [r3, #31]
  HAL_StatusTypeDef status = HAL_OK;
 800042e:	0013      	movs	r3, r2
    if(hdma->XferAbortCallback != NULL)
 8000430:	42a2      	cmp	r2, r4
 8000432:	d0e7      	beq.n	8000404 <HAL_DMA_Abort_IT+0x10>
      hdma->XferAbortCallback(hdma);
 8000434:	4790      	blx	r2
  HAL_StatusTypeDef status = HAL_OK;
 8000436:	0023      	movs	r3, r4
 8000438:	e7e4      	b.n	8000404 <HAL_DMA_Abort_IT+0x10>
	...

0800043c <HAL_GPIO_Init>:
  * @param  GPIO_Init pointer to a GPIO_InitTypeDef structure that contains
  *         the configuration information for the specified GPIO peripheral.
  * @retval None
  */
void HAL_GPIO_Init(GPIO_TypeDef  *GPIOx, GPIO_InitTypeDef *GPIO_Init)
{ 
 800043c:	b5f0      	push	{r4, r5, r6, r7, lr}
  assert_param(IS_GPIO_PIN(GPIO_Init->Pin));
  assert_param(IS_GPIO_MODE(GPIO_Init->Mode));
  assert_param(IS_GPIO_PULL(GPIO_Init->Pull)); 

  /* Configure the port pins */
  while (((GPIO_Init->Pin) >> position) != RESET)
 800043e:	680b      	ldr	r3, [r1, #0]
{ 
 8000440:	b087      	sub	sp, #28
  while (((GPIO_Init->Pin) >> position) != RESET)
 8000442:	9302      	str	r3, [sp, #8]
  uint32_t position = 0x00U;
 8000444:	2300      	movs	r3, #0
{ 
 8000446:	9101      	str	r1, [sp, #4]
  while (((GPIO_Init->Pin) >> position) != RESET)
 8000448:	9a02      	ldr	r2, [sp, #8]
 800044a:	40da      	lsrs	r2, r3
 800044c:	d101      	bne.n	8000452 <HAL_GPIO_Init+0x16>
      }
    }
    
    position++;
  } 
}
 800044e:	b007      	add	sp, #28
 8000450:	bdf0      	pop	{r4, r5, r6, r7, pc}
    iocurrent = (GPIO_Init->Pin) & (1U << position);
 8000452:	2201      	movs	r2, #1
 8000454:	409a      	lsls	r2, r3
 8000456:	9203      	str	r2, [sp, #12]
 8000458:	9903      	ldr	r1, [sp, #12]
 800045a:	9a02      	ldr	r2, [sp, #8]
 800045c:	400a      	ands	r2, r1
 800045e:	9200      	str	r2, [sp, #0]
    if(iocurrent)
 8000460:	d100      	bne.n	8000464 <HAL_GPIO_Init+0x28>
 8000462:	e08c      	b.n	800057e <HAL_GPIO_Init+0x142>
      if((GPIO_Init->Mode == GPIO_MODE_AF_PP) || (GPIO_Init->Mode == GPIO_MODE_AF_OD)) 
 8000464:	9a01      	ldr	r2, [sp, #4]
 8000466:	2110      	movs	r1, #16
 8000468:	6852      	ldr	r2, [r2, #4]
 800046a:	0016      	movs	r6, r2
 800046c:	438e      	bics	r6, r1
 800046e:	2e02      	cmp	r6, #2
 8000470:	d10e      	bne.n	8000490 <HAL_GPIO_Init+0x54>
        CLEAR_BIT(temp, 0xFU << ((uint32_t)(position & 0x07U) * 4U)) ;      
 8000472:	2507      	movs	r5, #7
 8000474:	401d      	ands	r5, r3
 8000476:	00ad      	lsls	r5, r5, #2
 8000478:	3901      	subs	r1, #1
 800047a:	40a9      	lsls	r1, r5
        temp = GPIOx->AFR[position >> 3];
 800047c:	08dc      	lsrs	r4, r3, #3
 800047e:	00a4      	lsls	r4, r4, #2
 8000480:	1904      	adds	r4, r0, r4
 8000482:	6a27      	ldr	r7, [r4, #32]
        CLEAR_BIT(temp, 0xFU << ((uint32_t)(position & 0x07U) * 4U)) ;      
 8000484:	438f      	bics	r7, r1
        SET_BIT(temp, (uint32_t)(GPIO_Init->Alternate) << (((uint32_t)position & 0x07U) * 4U));       
 8000486:	9901      	ldr	r1, [sp, #4]
 8000488:	6909      	ldr	r1, [r1, #16]
 800048a:	40a9      	lsls	r1, r5
 800048c:	430f      	orrs	r7, r1
        GPIOx->AFR[position >> 3U] = temp;
 800048e:	6227      	str	r7, [r4, #32]
      CLEAR_BIT(temp, GPIO_MODER_MODER0 << (position * 2U));   
 8000490:	2403      	movs	r4, #3
 8000492:	005f      	lsls	r7, r3, #1
 8000494:	40bc      	lsls	r4, r7
 8000496:	43e4      	mvns	r4, r4
      temp = GPIOx->MODER;
 8000498:	6805      	ldr	r5, [r0, #0]
      if ((GPIO_Init->Mode == GPIO_MODE_OUTPUT_PP) || (GPIO_Init->Mode == GPIO_MODE_AF_PP) ||
 800049a:	3e01      	subs	r6, #1
      CLEAR_BIT(temp, GPIO_MODER_MODER0 << (position * 2U));   
 800049c:	4025      	ands	r5, r4
 800049e:	46ac      	mov	ip, r5
      SET_BIT(temp, (GPIO_Init->Mode & GPIO_MODE) << (position * 2U));
 80004a0:	2503      	movs	r5, #3
 80004a2:	4015      	ands	r5, r2
 80004a4:	40bd      	lsls	r5, r7
 80004a6:	4661      	mov	r1, ip
 80004a8:	430d      	orrs	r5, r1
      GPIOx->MODER = temp;
 80004aa:	6005      	str	r5, [r0, #0]
      if ((GPIO_Init->Mode == GPIO_MODE_OUTPUT_PP) || (GPIO_Init->Mode == GPIO_MODE_AF_PP) ||
 80004ac:	2e01      	cmp	r6, #1
 80004ae:	d80f      	bhi.n	80004d0 <HAL_GPIO_Init+0x94>
        SET_BIT(temp, GPIO_Init->Speed << (position * 2U));
 80004b0:	9901      	ldr	r1, [sp, #4]
        temp = GPIOx->OSPEEDR; 
 80004b2:	6886      	ldr	r6, [r0, #8]
        SET_BIT(temp, GPIO_Init->Speed << (position * 2U));
 80004b4:	68cd      	ldr	r5, [r1, #12]
        CLEAR_BIT(temp, GPIO_OSPEEDER_OSPEEDR0 << (position * 2U));
 80004b6:	4026      	ands	r6, r4
        SET_BIT(temp, GPIO_Init->Speed << (position * 2U));
 80004b8:	40bd      	lsls	r5, r7
 80004ba:	4335      	orrs	r5, r6
        GPIOx->OSPEEDR = temp;
 80004bc:	6085      	str	r5, [r0, #8]
        temp = GPIOx->OTYPER;
 80004be:	6846      	ldr	r6, [r0, #4]
        CLEAR_BIT(temp, GPIO_OTYPER_OT_0 << position) ;
 80004c0:	9903      	ldr	r1, [sp, #12]
        SET_BIT(temp, ((GPIO_Init->Mode & GPIO_OUTPUT_TYPE) >> 4U) << position);
 80004c2:	0915      	lsrs	r5, r2, #4
        CLEAR_BIT(temp, GPIO_OTYPER_OT_0 << position) ;
 80004c4:	438e      	bics	r6, r1
        SET_BIT(temp, ((GPIO_Init->Mode & GPIO_OUTPUT_TYPE) >> 4U) << position);
 80004c6:	2101      	movs	r1, #1
 80004c8:	400d      	ands	r5, r1
 80004ca:	409d      	lsls	r5, r3
 80004cc:	4335      	orrs	r5, r6
        GPIOx->OTYPER = temp;
 80004ce:	6045      	str	r5, [r0, #4]
      temp = GPIOx->PUPDR;
 80004d0:	68c5      	ldr	r5, [r0, #12]
      SET_BIT(temp, (GPIO_Init->Pull) << (position * 2U));
 80004d2:	9901      	ldr	r1, [sp, #4]
      CLEAR_BIT(temp, GPIO_PUPDR_PUPDR0 << (position * 2U));
 80004d4:	402c      	ands	r4, r5
      SET_BIT(temp, (GPIO_Init->Pull) << (position * 2U));
 80004d6:	688d      	ldr	r5, [r1, #8]
      if((GPIO_Init->Mode & EXTI_MODE) == EXTI_MODE) 
 80004d8:	2180      	movs	r1, #128	; 0x80
      SET_BIT(temp, (GPIO_Init->Pull) << (position * 2U));
 80004da:	40bd      	lsls	r5, r7
      if((GPIO_Init->Mode & EXTI_MODE) == EXTI_MODE) 
 80004dc:	0549      	lsls	r1, r1, #21
      SET_BIT(temp, (GPIO_Init->Pull) << (position * 2U));
 80004de:	432c      	orrs	r4, r5
      GPIOx->PUPDR = temp;
 80004e0:	60c4      	str	r4, [r0, #12]
      if((GPIO_Init->Mode & EXTI_MODE) == EXTI_MODE) 
 80004e2:	420a      	tst	r2, r1
 80004e4:	d04b      	beq.n	800057e <HAL_GPIO_Init+0x142>
        __HAL_RCC_SYSCFG_CLK_ENABLE();
 80004e6:	2101      	movs	r1, #1
 80004e8:	4c26      	ldr	r4, [pc, #152]	; (8000584 <HAL_GPIO_Init+0x148>)
        CLEAR_BIT(temp, (0x0FU) << (4U * (position & 0x03U)));
 80004ea:	2603      	movs	r6, #3
        __HAL_RCC_SYSCFG_CLK_ENABLE();
 80004ec:	69a5      	ldr	r5, [r4, #24]
        CLEAR_BIT(temp, (0x0FU) << (4U * (position & 0x03U)));
 80004ee:	401e      	ands	r6, r3
        __HAL_RCC_SYSCFG_CLK_ENABLE();
 80004f0:	430d      	orrs	r5, r1
 80004f2:	61a5      	str	r5, [r4, #24]
 80004f4:	69a4      	ldr	r4, [r4, #24]
        temp = SYSCFG->EXTICR[position >> 2];
 80004f6:	089d      	lsrs	r5, r3, #2
        __HAL_RCC_SYSCFG_CLK_ENABLE();
 80004f8:	400c      	ands	r4, r1
 80004fa:	9405      	str	r4, [sp, #20]
 80004fc:	9c05      	ldr	r4, [sp, #20]
        CLEAR_BIT(temp, (0x0FU) << (4U * (position & 0x03U)));
 80004fe:	240f      	movs	r4, #15
 8000500:	4921      	ldr	r1, [pc, #132]	; (8000588 <HAL_GPIO_Init+0x14c>)
 8000502:	00ad      	lsls	r5, r5, #2
 8000504:	00b6      	lsls	r6, r6, #2
 8000506:	186d      	adds	r5, r5, r1
 8000508:	40b4      	lsls	r4, r6
        SET_BIT(temp, (GPIO_GET_INDEX(GPIOx)) << (4U * (position & 0x03U)));
 800050a:	2190      	movs	r1, #144	; 0x90
        temp = SYSCFG->EXTICR[position >> 2];
 800050c:	68af      	ldr	r7, [r5, #8]
        SET_BIT(temp, (GPIO_GET_INDEX(GPIOx)) << (4U * (position & 0x03U)));
 800050e:	05c9      	lsls	r1, r1, #23
        CLEAR_BIT(temp, (0x0FU) << (4U * (position & 0x03U)));
 8000510:	43a7      	bics	r7, r4
        SET_BIT(temp, (GPIO_GET_INDEX(GPIOx)) << (4U * (position & 0x03U)));
 8000512:	2400      	movs	r4, #0
 8000514:	4288      	cmp	r0, r1
 8000516:	d00c      	beq.n	8000532 <HAL_GPIO_Init+0xf6>
 8000518:	491c      	ldr	r1, [pc, #112]	; (800058c <HAL_GPIO_Init+0x150>)
 800051a:	3401      	adds	r4, #1
 800051c:	4288      	cmp	r0, r1
 800051e:	d008      	beq.n	8000532 <HAL_GPIO_Init+0xf6>
 8000520:	491b      	ldr	r1, [pc, #108]	; (8000590 <HAL_GPIO_Init+0x154>)
 8000522:	3401      	adds	r4, #1
 8000524:	4288      	cmp	r0, r1
 8000526:	d004      	beq.n	8000532 <HAL_GPIO_Init+0xf6>
 8000528:	491a      	ldr	r1, [pc, #104]	; (8000594 <HAL_GPIO_Init+0x158>)
 800052a:	3403      	adds	r4, #3
 800052c:	4288      	cmp	r0, r1
 800052e:	d100      	bne.n	8000532 <HAL_GPIO_Init+0xf6>
 8000530:	3c02      	subs	r4, #2
 8000532:	40b4      	lsls	r4, r6
        CLEAR_BIT(temp, (uint32_t)iocurrent);
 8000534:	9900      	ldr	r1, [sp, #0]
        SET_BIT(temp, (GPIO_GET_INDEX(GPIOx)) << (4U * (position & 0x03U)));
 8000536:	433c      	orrs	r4, r7
          SET_BIT(temp, iocurrent); 
 8000538:	000e      	movs	r6, r1
        SYSCFG->EXTICR[position >> 2] = temp;
 800053a:	60ac      	str	r4, [r5, #8]
        temp = EXTI->IMR;
 800053c:	4c16      	ldr	r4, [pc, #88]	; (8000598 <HAL_GPIO_Init+0x15c>)
        CLEAR_BIT(temp, (uint32_t)iocurrent);
 800053e:	43cd      	mvns	r5, r1
        temp = EXTI->IMR;
 8000540:	6827      	ldr	r7, [r4, #0]
          SET_BIT(temp, iocurrent); 
 8000542:	433e      	orrs	r6, r7
        if((GPIO_Init->Mode & GPIO_MODE_IT) == GPIO_MODE_IT)
 8000544:	03d1      	lsls	r1, r2, #15
 8000546:	d401      	bmi.n	800054c <HAL_GPIO_Init+0x110>
        CLEAR_BIT(temp, (uint32_t)iocurrent);
 8000548:	003e      	movs	r6, r7
 800054a:	402e      	ands	r6, r5
        EXTI->IMR = temp;
 800054c:	6026      	str	r6, [r4, #0]
        temp = EXTI->EMR;
 800054e:	6867      	ldr	r7, [r4, #4]
          SET_BIT(temp, iocurrent); 
 8000550:	9e00      	ldr	r6, [sp, #0]
 8000552:	433e      	orrs	r6, r7
        if((GPIO_Init->Mode & GPIO_MODE_EVT) == GPIO_MODE_EVT)
 8000554:	0391      	lsls	r1, r2, #14
 8000556:	d401      	bmi.n	800055c <HAL_GPIO_Init+0x120>
        CLEAR_BIT(temp, (uint32_t)iocurrent);      
 8000558:	003e      	movs	r6, r7
 800055a:	402e      	ands	r6, r5
        EXTI->EMR = temp;
 800055c:	6066      	str	r6, [r4, #4]
        temp = EXTI->RTSR;
 800055e:	68a7      	ldr	r7, [r4, #8]
          SET_BIT(temp, iocurrent); 
 8000560:	9e00      	ldr	r6, [sp, #0]
 8000562:	433e      	orrs	r6, r7
        if((GPIO_Init->Mode & RISING_EDGE) == RISING_EDGE)
 8000564:	02d1      	lsls	r1, r2, #11
 8000566:	d401      	bmi.n	800056c <HAL_GPIO_Init+0x130>
        CLEAR_BIT(temp, (uint32_t)iocurrent); 
 8000568:	003e      	movs	r6, r7
 800056a:	402e      	ands	r6, r5
        EXTI->RTSR = temp;
 800056c:	60a6      	str	r6, [r4, #8]
        temp = EXTI->FTSR;
 800056e:	68e6      	ldr	r6, [r4, #12]
          SET_BIT(temp, iocurrent); 
 8000570:	9f00      	ldr	r7, [sp, #0]
 8000572:	4337      	orrs	r7, r6
        if((GPIO_Init->Mode & FALLING_EDGE) == FALLING_EDGE)
 8000574:	0292      	lsls	r2, r2, #10
 8000576:	d401      	bmi.n	800057c <HAL_GPIO_Init+0x140>
        CLEAR_BIT(temp, (uint32_t)iocurrent); 
 8000578:	402e      	ands	r6, r5
 800057a:	0037      	movs	r7, r6
        EXTI->FTSR = temp;
 800057c:	60e7      	str	r7, [r4, #12]
    position++;
 800057e:	3301      	adds	r3, #1
 8000580:	e762      	b.n	8000448 <HAL_GPIO_Init+0xc>
 8000582:	46c0      	nop			; (mov r8, r8)
 8000584:	40021000 	.word	0x40021000
 8000588:	40010000 	.word	0x40010000
 800058c:	48000400 	.word	0x48000400
 8000590:	48000800 	.word	0x48000800
 8000594:	48000c00 	.word	0x48000c00
 8000598:	40010400 	.word	0x40010400

0800059c <HAL_GPIO_ReadPin>:
  GPIO_PinState bitstatus;

  /* Check the parameters */
  assert_param(IS_GPIO_PIN(GPIO_Pin));

  if ((GPIOx->IDR & GPIO_Pin) != (uint32_t)GPIO_PIN_RESET)
 800059c:	6900      	ldr	r0, [r0, #16]
 800059e:	4008      	ands	r0, r1
 80005a0:	1e41      	subs	r1, r0, #1
 80005a2:	4188      	sbcs	r0, r1
  }
  else
  {
    bitstatus = GPIO_PIN_RESET;
  }
  return bitstatus;
 80005a4:	b2c0      	uxtb	r0, r0
  }
 80005a6:	4770      	bx	lr

080005a8 <HAL_GPIO_WritePin>:
{
  /* Check the parameters */
  assert_param(IS_GPIO_PIN(GPIO_Pin));
  assert_param(IS_GPIO_PIN_ACTION(PinState));

  if (PinState != GPIO_PIN_RESET)
 80005a8:	2a00      	cmp	r2, #0
 80005aa:	d001      	beq.n	80005b0 <HAL_GPIO_WritePin+0x8>
  {
    GPIOx->BSRR = (uint32_t)GPIO_Pin;
 80005ac:	6181      	str	r1, [r0, #24]
  }
  else
  {
    GPIOx->BRR = (uint32_t)GPIO_Pin;
  }
}
 80005ae:	4770      	bx	lr
    GPIOx->BRR = (uint32_t)GPIO_Pin;
 80005b0:	6281      	str	r1, [r0, #40]	; 0x28
}
 80005b2:	e7fc      	b.n	80005ae <HAL_GPIO_WritePin+0x6>

080005b4 <HAL_PWR_EnableWakeUpPin>:
void HAL_PWR_EnableWakeUpPin(uint32_t WakeUpPinx)
{
  /* Check the parameters */
  assert_param(IS_PWR_WAKEUP_PIN(WakeUpPinx));
  /* Enable the EWUPx pin */
  SET_BIT(PWR->CSR, WakeUpPinx);
 80005b4:	4a02      	ldr	r2, [pc, #8]	; (80005c0 <HAL_PWR_EnableWakeUpPin+0xc>)
 80005b6:	6853      	ldr	r3, [r2, #4]
 80005b8:	4318      	orrs	r0, r3
 80005ba:	6050      	str	r0, [r2, #4]
}
 80005bc:	4770      	bx	lr
 80005be:	46c0      	nop			; (mov r8, r8)
 80005c0:	40007000 	.word	0x40007000

080005c4 <HAL_RCC_OscConfig>:
  *         supported by this macro. User should request a transition to HSE Off
  *         first and then HSE On or HSE Bypass.
  * @retval HAL status
  */
HAL_StatusTypeDef HAL_RCC_OscConfig(RCC_OscInitTypeDef  *RCC_OscInitStruct)
{
 80005c4:	b5f0      	push	{r4, r5, r6, r7, lr}
  /* Check the parameters */
  assert_param(RCC_OscInitStruct != NULL);
  assert_param(IS_RCC_OSCILLATORTYPE(RCC_OscInitStruct->OscillatorType));

  /*------------------------------- HSE Configuration ------------------------*/ 
  if(((RCC_OscInitStruct->OscillatorType) & RCC_OSCILLATORTYPE_HSE) == RCC_OSCILLATORTYPE_HSE)
 80005c6:	6803      	ldr	r3, [r0, #0]
{
 80005c8:	b085      	sub	sp, #20
 80005ca:	0005      	movs	r5, r0
  if(((RCC_OscInitStruct->OscillatorType) & RCC_OSCILLATORTYPE_HSE) == RCC_OSCILLATORTYPE_HSE)
 80005cc:	07db      	lsls	r3, r3, #31
 80005ce:	d42f      	bmi.n	8000630 <HAL_RCC_OscConfig+0x6c>
        }
      }
    }
  }
  /*----------------------------- HSI Configuration --------------------------*/ 
  if(((RCC_OscInitStruct->OscillatorType) & RCC_OSCILLATORTYPE_HSI) == RCC_OSCILLATORTYPE_HSI)
 80005d0:	682b      	ldr	r3, [r5, #0]
 80005d2:	079b      	lsls	r3, r3, #30
 80005d4:	d500      	bpl.n	80005d8 <HAL_RCC_OscConfig+0x14>
 80005d6:	e086      	b.n	80006e6 <HAL_RCC_OscConfig+0x122>
        }
      }
    }
  }
  /*------------------------------ LSI Configuration -------------------------*/ 
  if(((RCC_OscInitStruct->OscillatorType) & RCC_OSCILLATORTYPE_LSI) == RCC_OSCILLATORTYPE_LSI)
 80005d8:	682b      	ldr	r3, [r5, #0]
 80005da:	071b      	lsls	r3, r3, #28
 80005dc:	d500      	bpl.n	80005e0 <HAL_RCC_OscConfig+0x1c>
 80005de:	e0c6      	b.n	800076e <HAL_RCC_OscConfig+0x1aa>
        }
      }
    }
  }
  /*------------------------------ LSE Configuration -------------------------*/ 
  if(((RCC_OscInitStruct->OscillatorType) & RCC_OSCILLATORTYPE_LSE) == RCC_OSCILLATORTYPE_LSE)
 80005e0:	682b      	ldr	r3, [r5, #0]
 80005e2:	075b      	lsls	r3, r3, #29
 80005e4:	d500      	bpl.n	80005e8 <HAL_RCC_OscConfig+0x24>
 80005e6:	e0e9      	b.n	80007bc <HAL_RCC_OscConfig+0x1f8>
      __HAL_RCC_PWR_CLK_DISABLE();
    }
  }

  /*----------------------------- HSI14 Configuration --------------------------*/
  if(((RCC_OscInitStruct->OscillatorType) & RCC_OSCILLATORTYPE_HSI14) == RCC_OSCILLATORTYPE_HSI14)
 80005e8:	682b      	ldr	r3, [r5, #0]
 80005ea:	06db      	lsls	r3, r3, #27
 80005ec:	d51a      	bpl.n	8000624 <HAL_RCC_OscConfig+0x60>
    /* Check the parameters */
    assert_param(IS_RCC_HSI14(RCC_OscInitStruct->HSI14State));
    assert_param(IS_RCC_CALIBRATION_VALUE(RCC_OscInitStruct->HSI14CalibrationValue));

    /* Check the HSI14 State */
    if(RCC_OscInitStruct->HSI14State == RCC_HSI14_ON)
 80005ee:	696a      	ldr	r2, [r5, #20]
 80005f0:	4cba      	ldr	r4, [pc, #744]	; (80008dc <HAL_RCC_OscConfig+0x318>)
 80005f2:	2304      	movs	r3, #4
 80005f4:	2a01      	cmp	r2, #1
 80005f6:	d000      	beq.n	80005fa <HAL_RCC_OscConfig+0x36>
 80005f8:	e155      	b.n	80008a6 <HAL_RCC_OscConfig+0x2e2>
    {
      /* Disable ADC control of the Internal High Speed oscillator HSI14 */
      __HAL_RCC_HSI14ADC_DISABLE();
 80005fa:	6b61      	ldr	r1, [r4, #52]	; 0x34

      /* Get Start Tick */
      tickstart = HAL_GetTick();
      
      /* Wait till HSI is ready */  
      while(__HAL_RCC_GET_FLAG(RCC_FLAG_HSI14RDY) == RESET)
 80005fc:	2602      	movs	r6, #2
      __HAL_RCC_HSI14ADC_DISABLE();
 80005fe:	430b      	orrs	r3, r1
 8000600:	6363      	str	r3, [r4, #52]	; 0x34
      __HAL_RCC_HSI14_ENABLE();
 8000602:	6b63      	ldr	r3, [r4, #52]	; 0x34
 8000604:	431a      	orrs	r2, r3
 8000606:	6362      	str	r2, [r4, #52]	; 0x34
      tickstart = HAL_GetTick();
 8000608:	f7ff fe50 	bl	80002ac <HAL_GetTick>
 800060c:	0007      	movs	r7, r0
      while(__HAL_RCC_GET_FLAG(RCC_FLAG_HSI14RDY) == RESET)
 800060e:	6b63      	ldr	r3, [r4, #52]	; 0x34
 8000610:	4233      	tst	r3, r6
 8000612:	d100      	bne.n	8000616 <HAL_RCC_OscConfig+0x52>
 8000614:	e140      	b.n	8000898 <HAL_RCC_OscConfig+0x2d4>
    {
      /* Enable ADC control of the Internal High Speed oscillator HSI14 */
      __HAL_RCC_HSI14ADC_ENABLE();

      /* Adjusts the Internal High Speed oscillator 14Mhz (HSI14) calibration value. */
      __HAL_RCC_HSI14_CALIBRATIONVALUE_ADJUST(RCC_OscInitStruct->HSI14CalibrationValue);
 8000616:	21f8      	movs	r1, #248	; 0xf8
 8000618:	6b62      	ldr	r2, [r4, #52]	; 0x34
 800061a:	69ab      	ldr	r3, [r5, #24]
 800061c:	438a      	bics	r2, r1
 800061e:	00db      	lsls	r3, r3, #3
 8000620:	4313      	orrs	r3, r2
 8000622:	6363      	str	r3, [r4, #52]	; 0x34
#endif /* RCC_HSI48_SUPPORT */
       
  /*-------------------------------- PLL Configuration -----------------------*/
  /* Check the parameters */
  assert_param(IS_RCC_PLL(RCC_OscInitStruct->PLL.PLLState));
  if ((RCC_OscInitStruct->PLL.PLLState) != RCC_PLL_NONE)
 8000624:	6a29      	ldr	r1, [r5, #32]
 8000626:	2900      	cmp	r1, #0
 8000628:	d000      	beq.n	800062c <HAL_RCC_OscConfig+0x68>
 800062a:	e163      	b.n	80008f4 <HAL_RCC_OscConfig+0x330>
    {
      return HAL_ERROR;
    }
  }
  
  return HAL_OK;
 800062c:	2000      	movs	r0, #0
 800062e:	e018      	b.n	8000662 <HAL_RCC_OscConfig+0x9e>
    if((__HAL_RCC_GET_SYSCLK_SOURCE() == RCC_SYSCLKSOURCE_STATUS_HSE) 
 8000630:	210c      	movs	r1, #12
 8000632:	4caa      	ldr	r4, [pc, #680]	; (80008dc <HAL_RCC_OscConfig+0x318>)
 8000634:	6862      	ldr	r2, [r4, #4]
 8000636:	400a      	ands	r2, r1
 8000638:	2a04      	cmp	r2, #4
 800063a:	d00b      	beq.n	8000654 <HAL_RCC_OscConfig+0x90>
       || ((__HAL_RCC_GET_SYSCLK_SOURCE() == RCC_SYSCLKSOURCE_STATUS_PLLCLK) && (__HAL_RCC_GET_PLL_OSCSOURCE() == RCC_PLLSOURCE_HSE)))
 800063c:	6863      	ldr	r3, [r4, #4]
 800063e:	400b      	ands	r3, r1
 8000640:	2b08      	cmp	r3, #8
 8000642:	d110      	bne.n	8000666 <HAL_RCC_OscConfig+0xa2>
 8000644:	22c0      	movs	r2, #192	; 0xc0
 8000646:	6863      	ldr	r3, [r4, #4]
 8000648:	0252      	lsls	r2, r2, #9
 800064a:	4013      	ands	r3, r2
 800064c:	2280      	movs	r2, #128	; 0x80
 800064e:	0252      	lsls	r2, r2, #9
 8000650:	4293      	cmp	r3, r2
 8000652:	d108      	bne.n	8000666 <HAL_RCC_OscConfig+0xa2>
      if((__HAL_RCC_GET_FLAG(RCC_FLAG_HSERDY) != RESET) && (RCC_OscInitStruct->HSEState == RCC_HSE_OFF))
 8000654:	6823      	ldr	r3, [r4, #0]
 8000656:	039b      	lsls	r3, r3, #14
 8000658:	d5ba      	bpl.n	80005d0 <HAL_RCC_OscConfig+0xc>
 800065a:	686b      	ldr	r3, [r5, #4]
 800065c:	2b00      	cmp	r3, #0
 800065e:	d1b7      	bne.n	80005d0 <HAL_RCC_OscConfig+0xc>
        return HAL_ERROR;
 8000660:	2001      	movs	r0, #1
}
 8000662:	b005      	add	sp, #20
 8000664:	bdf0      	pop	{r4, r5, r6, r7, pc}
      __HAL_RCC_HSE_CONFIG(RCC_OscInitStruct->HSEState);
 8000666:	686b      	ldr	r3, [r5, #4]
 8000668:	2b01      	cmp	r3, #1
 800066a:	d113      	bne.n	8000694 <HAL_RCC_OscConfig+0xd0>
 800066c:	2380      	movs	r3, #128	; 0x80
 800066e:	6822      	ldr	r2, [r4, #0]
 8000670:	025b      	lsls	r3, r3, #9
 8000672:	4313      	orrs	r3, r2
 8000674:	6023      	str	r3, [r4, #0]
        tickstart = HAL_GetTick();
 8000676:	f7ff fe19 	bl	80002ac <HAL_GetTick>
        while(__HAL_RCC_GET_FLAG(RCC_FLAG_HSERDY) == RESET)
 800067a:	2680      	movs	r6, #128	; 0x80
        tickstart = HAL_GetTick();
 800067c:	0007      	movs	r7, r0
        while(__HAL_RCC_GET_FLAG(RCC_FLAG_HSERDY) == RESET)
 800067e:	02b6      	lsls	r6, r6, #10
 8000680:	6823      	ldr	r3, [r4, #0]
 8000682:	4233      	tst	r3, r6
 8000684:	d1a4      	bne.n	80005d0 <HAL_RCC_OscConfig+0xc>
          if((HAL_GetTick() - tickstart ) > HSE_TIMEOUT_VALUE)
 8000686:	f7ff fe11 	bl	80002ac <HAL_GetTick>
 800068a:	1bc0      	subs	r0, r0, r7
 800068c:	2864      	cmp	r0, #100	; 0x64
 800068e:	d9f7      	bls.n	8000680 <HAL_RCC_OscConfig+0xbc>
            return HAL_TIMEOUT;
 8000690:	2003      	movs	r0, #3
 8000692:	e7e6      	b.n	8000662 <HAL_RCC_OscConfig+0x9e>
      __HAL_RCC_HSE_CONFIG(RCC_OscInitStruct->HSEState);
 8000694:	2b00      	cmp	r3, #0
 8000696:	d116      	bne.n	80006c6 <HAL_RCC_OscConfig+0x102>
 8000698:	6823      	ldr	r3, [r4, #0]
 800069a:	4a91      	ldr	r2, [pc, #580]	; (80008e0 <HAL_RCC_OscConfig+0x31c>)
        while(__HAL_RCC_GET_FLAG(RCC_FLAG_HSERDY) != RESET)
 800069c:	2680      	movs	r6, #128	; 0x80
      __HAL_RCC_HSE_CONFIG(RCC_OscInitStruct->HSEState);
 800069e:	4013      	ands	r3, r2
 80006a0:	6023      	str	r3, [r4, #0]
 80006a2:	6823      	ldr	r3, [r4, #0]
 80006a4:	4a8f      	ldr	r2, [pc, #572]	; (80008e4 <HAL_RCC_OscConfig+0x320>)
        while(__HAL_RCC_GET_FLAG(RCC_FLAG_HSERDY) != RESET)
 80006a6:	02b6      	lsls	r6, r6, #10
      __HAL_RCC_HSE_CONFIG(RCC_OscInitStruct->HSEState);
 80006a8:	4013      	ands	r3, r2
 80006aa:	6023      	str	r3, [r4, #0]
        tickstart = HAL_GetTick();
 80006ac:	f7ff fdfe 	bl	80002ac <HAL_GetTick>
 80006b0:	0007      	movs	r7, r0
        while(__HAL_RCC_GET_FLAG(RCC_FLAG_HSERDY) != RESET)
 80006b2:	6823      	ldr	r3, [r4, #0]
 80006b4:	4233      	tst	r3, r6
 80006b6:	d100      	bne.n	80006ba <HAL_RCC_OscConfig+0xf6>
 80006b8:	e78a      	b.n	80005d0 <HAL_RCC_OscConfig+0xc>
           if((HAL_GetTick() - tickstart ) > HSE_TIMEOUT_VALUE)
 80006ba:	f7ff fdf7 	bl	80002ac <HAL_GetTick>
 80006be:	1bc0      	subs	r0, r0, r7
 80006c0:	2864      	cmp	r0, #100	; 0x64
 80006c2:	d9f6      	bls.n	80006b2 <HAL_RCC_OscConfig+0xee>
 80006c4:	e7e4      	b.n	8000690 <HAL_RCC_OscConfig+0xcc>
      __HAL_RCC_HSE_CONFIG(RCC_OscInitStruct->HSEState);
 80006c6:	2b05      	cmp	r3, #5
 80006c8:	d105      	bne.n	80006d6 <HAL_RCC_OscConfig+0x112>
 80006ca:	2380      	movs	r3, #128	; 0x80
 80006cc:	6822      	ldr	r2, [r4, #0]
 80006ce:	02db      	lsls	r3, r3, #11
 80006d0:	4313      	orrs	r3, r2
 80006d2:	6023      	str	r3, [r4, #0]
 80006d4:	e7ca      	b.n	800066c <HAL_RCC_OscConfig+0xa8>
 80006d6:	6823      	ldr	r3, [r4, #0]
 80006d8:	4a81      	ldr	r2, [pc, #516]	; (80008e0 <HAL_RCC_OscConfig+0x31c>)
 80006da:	4013      	ands	r3, r2
 80006dc:	6023      	str	r3, [r4, #0]
 80006de:	6823      	ldr	r3, [r4, #0]
 80006e0:	4a80      	ldr	r2, [pc, #512]	; (80008e4 <HAL_RCC_OscConfig+0x320>)
 80006e2:	4013      	ands	r3, r2
 80006e4:	e7c6      	b.n	8000674 <HAL_RCC_OscConfig+0xb0>
    if((__HAL_RCC_GET_SYSCLK_SOURCE() == RCC_SYSCLKSOURCE_STATUS_HSI) 
 80006e6:	220c      	movs	r2, #12
 80006e8:	4c7c      	ldr	r4, [pc, #496]	; (80008dc <HAL_RCC_OscConfig+0x318>)
 80006ea:	6863      	ldr	r3, [r4, #4]
 80006ec:	4213      	tst	r3, r2
 80006ee:	d00b      	beq.n	8000708 <HAL_RCC_OscConfig+0x144>
       || ((__HAL_RCC_GET_SYSCLK_SOURCE() == RCC_SYSCLKSOURCE_STATUS_PLLCLK) && (__HAL_RCC_GET_PLL_OSCSOURCE() == RCC_PLLSOURCE_HSI)))
 80006f0:	6863      	ldr	r3, [r4, #4]
 80006f2:	4013      	ands	r3, r2
 80006f4:	2b08      	cmp	r3, #8
 80006f6:	d115      	bne.n	8000724 <HAL_RCC_OscConfig+0x160>
 80006f8:	22c0      	movs	r2, #192	; 0xc0
 80006fa:	6863      	ldr	r3, [r4, #4]
 80006fc:	0252      	lsls	r2, r2, #9
 80006fe:	4013      	ands	r3, r2
 8000700:	2280      	movs	r2, #128	; 0x80
 8000702:	0212      	lsls	r2, r2, #8
 8000704:	4293      	cmp	r3, r2
 8000706:	d10d      	bne.n	8000724 <HAL_RCC_OscConfig+0x160>
      if((__HAL_RCC_GET_FLAG(RCC_FLAG_HSIRDY) != RESET) && (RCC_OscInitStruct->HSIState != RCC_HSI_ON))
 8000708:	6823      	ldr	r3, [r4, #0]
 800070a:	079b      	lsls	r3, r3, #30
 800070c:	d502      	bpl.n	8000714 <HAL_RCC_OscConfig+0x150>
 800070e:	68eb      	ldr	r3, [r5, #12]
 8000710:	2b01      	cmp	r3, #1
 8000712:	d1a5      	bne.n	8000660 <HAL_RCC_OscConfig+0x9c>
        __HAL_RCC_HSI_CALIBRATIONVALUE_ADJUST(RCC_OscInitStruct->HSICalibrationValue);
 8000714:	21f8      	movs	r1, #248	; 0xf8
 8000716:	6822      	ldr	r2, [r4, #0]
 8000718:	692b      	ldr	r3, [r5, #16]
 800071a:	438a      	bics	r2, r1
 800071c:	00db      	lsls	r3, r3, #3
 800071e:	4313      	orrs	r3, r2
 8000720:	6023      	str	r3, [r4, #0]
 8000722:	e759      	b.n	80005d8 <HAL_RCC_OscConfig+0x14>
      if(RCC_OscInitStruct->HSIState != RCC_HSI_OFF)
 8000724:	68ea      	ldr	r2, [r5, #12]
 8000726:	2301      	movs	r3, #1
 8000728:	2a00      	cmp	r2, #0
 800072a:	d00f      	beq.n	800074c <HAL_RCC_OscConfig+0x188>
        __HAL_RCC_HSI_ENABLE();
 800072c:	6822      	ldr	r2, [r4, #0]
        while(__HAL_RCC_GET_FLAG(RCC_FLAG_HSIRDY) == RESET)
 800072e:	2602      	movs	r6, #2
        __HAL_RCC_HSI_ENABLE();
 8000730:	4313      	orrs	r3, r2
 8000732:	6023      	str	r3, [r4, #0]
        tickstart = HAL_GetTick();
 8000734:	f7ff fdba 	bl	80002ac <HAL_GetTick>
 8000738:	0007      	movs	r7, r0
        while(__HAL_RCC_GET_FLAG(RCC_FLAG_HSIRDY) == RESET)
 800073a:	6823      	ldr	r3, [r4, #0]
 800073c:	4233      	tst	r3, r6
 800073e:	d1e9      	bne.n	8000714 <HAL_RCC_OscConfig+0x150>
          if((HAL_GetTick() - tickstart ) > HSI_TIMEOUT_VALUE)
 8000740:	f7ff fdb4 	bl	80002ac <HAL_GetTick>
 8000744:	1bc0      	subs	r0, r0, r7
 8000746:	2802      	cmp	r0, #2
 8000748:	d9f7      	bls.n	800073a <HAL_RCC_OscConfig+0x176>
 800074a:	e7a1      	b.n	8000690 <HAL_RCC_OscConfig+0xcc>
        __HAL_RCC_HSI_DISABLE();
 800074c:	6822      	ldr	r2, [r4, #0]
        while(__HAL_RCC_GET_FLAG(RCC_FLAG_HSIRDY) != RESET)
 800074e:	2602      	movs	r6, #2
        __HAL_RCC_HSI_DISABLE();
 8000750:	439a      	bics	r2, r3
 8000752:	6022      	str	r2, [r4, #0]
        tickstart = HAL_GetTick();
 8000754:	f7ff fdaa 	bl	80002ac <HAL_GetTick>
 8000758:	0007      	movs	r7, r0
        while(__HAL_RCC_GET_FLAG(RCC_FLAG_HSIRDY) != RESET)
 800075a:	6823      	ldr	r3, [r4, #0]
 800075c:	4233      	tst	r3, r6
 800075e:	d100      	bne.n	8000762 <HAL_RCC_OscConfig+0x19e>
 8000760:	e73a      	b.n	80005d8 <HAL_RCC_OscConfig+0x14>
          if((HAL_GetTick() - tickstart ) > HSI_TIMEOUT_VALUE)
 8000762:	f7ff fda3 	bl	80002ac <HAL_GetTick>
 8000766:	1bc0      	subs	r0, r0, r7
 8000768:	2802      	cmp	r0, #2
 800076a:	d9f6      	bls.n	800075a <HAL_RCC_OscConfig+0x196>
 800076c:	e790      	b.n	8000690 <HAL_RCC_OscConfig+0xcc>
    if(RCC_OscInitStruct->LSIState != RCC_LSI_OFF)
 800076e:	69ea      	ldr	r2, [r5, #28]
 8000770:	2301      	movs	r3, #1
 8000772:	4c5a      	ldr	r4, [pc, #360]	; (80008dc <HAL_RCC_OscConfig+0x318>)
 8000774:	2a00      	cmp	r2, #0
 8000776:	d010      	beq.n	800079a <HAL_RCC_OscConfig+0x1d6>
      __HAL_RCC_LSI_ENABLE();
 8000778:	6a62      	ldr	r2, [r4, #36]	; 0x24
      while(__HAL_RCC_GET_FLAG(RCC_FLAG_LSIRDY) == RESET)
 800077a:	2602      	movs	r6, #2
      __HAL_RCC_LSI_ENABLE();
 800077c:	4313      	orrs	r3, r2
 800077e:	6263      	str	r3, [r4, #36]	; 0x24
      tickstart = HAL_GetTick();
 8000780:	f7ff fd94 	bl	80002ac <HAL_GetTick>
 8000784:	0007      	movs	r7, r0
      while(__HAL_RCC_GET_FLAG(RCC_FLAG_LSIRDY) == RESET)
 8000786:	6a63      	ldr	r3, [r4, #36]	; 0x24
 8000788:	4233      	tst	r3, r6
 800078a:	d000      	beq.n	800078e <HAL_RCC_OscConfig+0x1ca>
 800078c:	e728      	b.n	80005e0 <HAL_RCC_OscConfig+0x1c>
        if((HAL_GetTick() - tickstart ) > LSI_TIMEOUT_VALUE)
 800078e:	f7ff fd8d 	bl	80002ac <HAL_GetTick>
 8000792:	1bc0      	subs	r0, r0, r7
 8000794:	2802      	cmp	r0, #2
 8000796:	d9f6      	bls.n	8000786 <HAL_RCC_OscConfig+0x1c2>
 8000798:	e77a      	b.n	8000690 <HAL_RCC_OscConfig+0xcc>
      __HAL_RCC_LSI_DISABLE();
 800079a:	6a62      	ldr	r2, [r4, #36]	; 0x24
      while(__HAL_RCC_GET_FLAG(RCC_FLAG_LSIRDY) != RESET)
 800079c:	2602      	movs	r6, #2
      __HAL_RCC_LSI_DISABLE();
 800079e:	439a      	bics	r2, r3
 80007a0:	6262      	str	r2, [r4, #36]	; 0x24
      tickstart = HAL_GetTick();
 80007a2:	f7ff fd83 	bl	80002ac <HAL_GetTick>
 80007a6:	0007      	movs	r7, r0
      while(__HAL_RCC_GET_FLAG(RCC_FLAG_LSIRDY) != RESET)
 80007a8:	6a63      	ldr	r3, [r4, #36]	; 0x24
 80007aa:	4233      	tst	r3, r6
 80007ac:	d100      	bne.n	80007b0 <HAL_RCC_OscConfig+0x1ec>
 80007ae:	e717      	b.n	80005e0 <HAL_RCC_OscConfig+0x1c>
        if((HAL_GetTick() - tickstart ) > LSI_TIMEOUT_VALUE)
 80007b0:	f7ff fd7c 	bl	80002ac <HAL_GetTick>
 80007b4:	1bc0      	subs	r0, r0, r7
 80007b6:	2802      	cmp	r0, #2
 80007b8:	d9f6      	bls.n	80007a8 <HAL_RCC_OscConfig+0x1e4>
 80007ba:	e769      	b.n	8000690 <HAL_RCC_OscConfig+0xcc>
    if(__HAL_RCC_PWR_IS_CLK_DISABLED())
 80007bc:	2280      	movs	r2, #128	; 0x80
    FlagStatus       pwrclkchanged = RESET;
 80007be:	2100      	movs	r1, #0
    if(__HAL_RCC_PWR_IS_CLK_DISABLED())
 80007c0:	4c46      	ldr	r4, [pc, #280]	; (80008dc <HAL_RCC_OscConfig+0x318>)
 80007c2:	0552      	lsls	r2, r2, #21
 80007c4:	69e3      	ldr	r3, [r4, #28]
    FlagStatus       pwrclkchanged = RESET;
 80007c6:	9100      	str	r1, [sp, #0]
    if(__HAL_RCC_PWR_IS_CLK_DISABLED())
 80007c8:	4213      	tst	r3, r2
 80007ca:	d108      	bne.n	80007de <HAL_RCC_OscConfig+0x21a>
      __HAL_RCC_PWR_CLK_ENABLE();
 80007cc:	69e3      	ldr	r3, [r4, #28]
 80007ce:	4313      	orrs	r3, r2
 80007d0:	61e3      	str	r3, [r4, #28]
 80007d2:	69e3      	ldr	r3, [r4, #28]
 80007d4:	4013      	ands	r3, r2
 80007d6:	9303      	str	r3, [sp, #12]
 80007d8:	9b03      	ldr	r3, [sp, #12]
      pwrclkchanged = SET;
 80007da:	2301      	movs	r3, #1
 80007dc:	9300      	str	r3, [sp, #0]
    if(HAL_IS_BIT_CLR(PWR->CR, PWR_CR_DBP))
 80007de:	2780      	movs	r7, #128	; 0x80
 80007e0:	4e41      	ldr	r6, [pc, #260]	; (80008e8 <HAL_RCC_OscConfig+0x324>)
 80007e2:	007f      	lsls	r7, r7, #1
 80007e4:	6833      	ldr	r3, [r6, #0]
 80007e6:	423b      	tst	r3, r7
 80007e8:	d006      	beq.n	80007f8 <HAL_RCC_OscConfig+0x234>
    __HAL_RCC_LSE_CONFIG(RCC_OscInitStruct->LSEState);
 80007ea:	68ab      	ldr	r3, [r5, #8]
 80007ec:	2b01      	cmp	r3, #1
 80007ee:	d113      	bne.n	8000818 <HAL_RCC_OscConfig+0x254>
 80007f0:	6a22      	ldr	r2, [r4, #32]
 80007f2:	4313      	orrs	r3, r2
 80007f4:	6223      	str	r3, [r4, #32]
 80007f6:	e030      	b.n	800085a <HAL_RCC_OscConfig+0x296>
      SET_BIT(PWR->CR, PWR_CR_DBP);
 80007f8:	6833      	ldr	r3, [r6, #0]
 80007fa:	433b      	orrs	r3, r7
 80007fc:	6033      	str	r3, [r6, #0]
      tickstart = HAL_GetTick();
 80007fe:	f7ff fd55 	bl	80002ac <HAL_GetTick>
 8000802:	9001      	str	r0, [sp, #4]
      while(HAL_IS_BIT_CLR(PWR->CR, PWR_CR_DBP))
 8000804:	6833      	ldr	r3, [r6, #0]
 8000806:	423b      	tst	r3, r7
 8000808:	d1ef      	bne.n	80007ea <HAL_RCC_OscConfig+0x226>
        if((HAL_GetTick() - tickstart) > RCC_DBP_TIMEOUT_VALUE)
 800080a:	f7ff fd4f 	bl	80002ac <HAL_GetTick>
 800080e:	9b01      	ldr	r3, [sp, #4]
 8000810:	1ac0      	subs	r0, r0, r3
 8000812:	2864      	cmp	r0, #100	; 0x64
 8000814:	d9f6      	bls.n	8000804 <HAL_RCC_OscConfig+0x240>
 8000816:	e73b      	b.n	8000690 <HAL_RCC_OscConfig+0xcc>
 8000818:	2201      	movs	r2, #1
    __HAL_RCC_LSE_CONFIG(RCC_OscInitStruct->LSEState);
 800081a:	2b00      	cmp	r3, #0
 800081c:	d114      	bne.n	8000848 <HAL_RCC_OscConfig+0x284>
 800081e:	6a23      	ldr	r3, [r4, #32]
      while(__HAL_RCC_GET_FLAG(RCC_FLAG_LSERDY) != RESET)
 8000820:	2702      	movs	r7, #2
    __HAL_RCC_LSE_CONFIG(RCC_OscInitStruct->LSEState);
 8000822:	4393      	bics	r3, r2
 8000824:	6223      	str	r3, [r4, #32]
 8000826:	6a23      	ldr	r3, [r4, #32]
 8000828:	3203      	adds	r2, #3
 800082a:	4393      	bics	r3, r2
 800082c:	6223      	str	r3, [r4, #32]
      tickstart = HAL_GetTick();
 800082e:	f7ff fd3d 	bl	80002ac <HAL_GetTick>
 8000832:	0006      	movs	r6, r0
      while(__HAL_RCC_GET_FLAG(RCC_FLAG_LSERDY) != RESET)
 8000834:	6a23      	ldr	r3, [r4, #32]
 8000836:	423b      	tst	r3, r7
 8000838:	d025      	beq.n	8000886 <HAL_RCC_OscConfig+0x2c2>
        if((HAL_GetTick() - tickstart ) > RCC_LSE_TIMEOUT_VALUE)
 800083a:	f7ff fd37 	bl	80002ac <HAL_GetTick>
 800083e:	4b2b      	ldr	r3, [pc, #172]	; (80008ec <HAL_RCC_OscConfig+0x328>)
 8000840:	1b80      	subs	r0, r0, r6
 8000842:	4298      	cmp	r0, r3
 8000844:	d9f6      	bls.n	8000834 <HAL_RCC_OscConfig+0x270>
 8000846:	e723      	b.n	8000690 <HAL_RCC_OscConfig+0xcc>
    __HAL_RCC_LSE_CONFIG(RCC_OscInitStruct->LSEState);
 8000848:	2b05      	cmp	r3, #5
 800084a:	d10b      	bne.n	8000864 <HAL_RCC_OscConfig+0x2a0>
 800084c:	6a21      	ldr	r1, [r4, #32]
 800084e:	3b01      	subs	r3, #1
 8000850:	430b      	orrs	r3, r1
 8000852:	6223      	str	r3, [r4, #32]
 8000854:	6a23      	ldr	r3, [r4, #32]
 8000856:	431a      	orrs	r2, r3
 8000858:	6222      	str	r2, [r4, #32]
      tickstart = HAL_GetTick();
 800085a:	f7ff fd27 	bl	80002ac <HAL_GetTick>
      while(__HAL_RCC_GET_FLAG(RCC_FLAG_LSERDY) == RESET)
 800085e:	2702      	movs	r7, #2
      tickstart = HAL_GetTick();
 8000860:	0006      	movs	r6, r0
      while(__HAL_RCC_GET_FLAG(RCC_FLAG_LSERDY) == RESET)
 8000862:	e00d      	b.n	8000880 <HAL_RCC_OscConfig+0x2bc>
    __HAL_RCC_LSE_CONFIG(RCC_OscInitStruct->LSEState);
 8000864:	6a23      	ldr	r3, [r4, #32]
 8000866:	4393      	bics	r3, r2
 8000868:	2204      	movs	r2, #4
 800086a:	6223      	str	r3, [r4, #32]
 800086c:	6a23      	ldr	r3, [r4, #32]
 800086e:	4393      	bics	r3, r2
 8000870:	e7c0      	b.n	80007f4 <HAL_RCC_OscConfig+0x230>
        if((HAL_GetTick() - tickstart ) > RCC_LSE_TIMEOUT_VALUE)
 8000872:	f7ff fd1b 	bl	80002ac <HAL_GetTick>
 8000876:	4b1d      	ldr	r3, [pc, #116]	; (80008ec <HAL_RCC_OscConfig+0x328>)
 8000878:	1b80      	subs	r0, r0, r6
 800087a:	4298      	cmp	r0, r3
 800087c:	d900      	bls.n	8000880 <HAL_RCC_OscConfig+0x2bc>
 800087e:	e707      	b.n	8000690 <HAL_RCC_OscConfig+0xcc>
      while(__HAL_RCC_GET_FLAG(RCC_FLAG_LSERDY) == RESET)
 8000880:	6a23      	ldr	r3, [r4, #32]
 8000882:	423b      	tst	r3, r7
 8000884:	d0f5      	beq.n	8000872 <HAL_RCC_OscConfig+0x2ae>
    if(pwrclkchanged == SET)
 8000886:	9b00      	ldr	r3, [sp, #0]
 8000888:	2b01      	cmp	r3, #1
 800088a:	d000      	beq.n	800088e <HAL_RCC_OscConfig+0x2ca>
 800088c:	e6ac      	b.n	80005e8 <HAL_RCC_OscConfig+0x24>
      __HAL_RCC_PWR_CLK_DISABLE();
 800088e:	69e3      	ldr	r3, [r4, #28]
 8000890:	4a17      	ldr	r2, [pc, #92]	; (80008f0 <HAL_RCC_OscConfig+0x32c>)
 8000892:	4013      	ands	r3, r2
 8000894:	61e3      	str	r3, [r4, #28]
 8000896:	e6a7      	b.n	80005e8 <HAL_RCC_OscConfig+0x24>
        if((HAL_GetTick() - tickstart) > HSI14_TIMEOUT_VALUE)
 8000898:	f7ff fd08 	bl	80002ac <HAL_GetTick>
 800089c:	1bc0      	subs	r0, r0, r7
 800089e:	2802      	cmp	r0, #2
 80008a0:	d800      	bhi.n	80008a4 <HAL_RCC_OscConfig+0x2e0>
 80008a2:	e6b4      	b.n	800060e <HAL_RCC_OscConfig+0x4a>
 80008a4:	e6f4      	b.n	8000690 <HAL_RCC_OscConfig+0xcc>
    else if(RCC_OscInitStruct->HSI14State == RCC_HSI14_ADC_CONTROL)
 80008a6:	3205      	adds	r2, #5
 80008a8:	d103      	bne.n	80008b2 <HAL_RCC_OscConfig+0x2ee>
      __HAL_RCC_HSI14ADC_ENABLE();
 80008aa:	6b62      	ldr	r2, [r4, #52]	; 0x34
 80008ac:	439a      	bics	r2, r3
 80008ae:	6362      	str	r2, [r4, #52]	; 0x34
 80008b0:	e6b1      	b.n	8000616 <HAL_RCC_OscConfig+0x52>
      __HAL_RCC_HSI14ADC_DISABLE();
 80008b2:	6b62      	ldr	r2, [r4, #52]	; 0x34
      while(__HAL_RCC_GET_FLAG(RCC_FLAG_HSI14RDY) != RESET)
 80008b4:	2602      	movs	r6, #2
      __HAL_RCC_HSI14ADC_DISABLE();
 80008b6:	4313      	orrs	r3, r2
      __HAL_RCC_HSI14_DISABLE();
 80008b8:	2201      	movs	r2, #1
      __HAL_RCC_HSI14ADC_DISABLE();
 80008ba:	6363      	str	r3, [r4, #52]	; 0x34
      __HAL_RCC_HSI14_DISABLE();
 80008bc:	6b63      	ldr	r3, [r4, #52]	; 0x34
 80008be:	4393      	bics	r3, r2
 80008c0:	6363      	str	r3, [r4, #52]	; 0x34
      tickstart = HAL_GetTick();
 80008c2:	f7ff fcf3 	bl	80002ac <HAL_GetTick>
 80008c6:	0007      	movs	r7, r0
      while(__HAL_RCC_GET_FLAG(RCC_FLAG_HSI14RDY) != RESET)
 80008c8:	6b63      	ldr	r3, [r4, #52]	; 0x34
 80008ca:	4233      	tst	r3, r6
 80008cc:	d100      	bne.n	80008d0 <HAL_RCC_OscConfig+0x30c>
 80008ce:	e6a9      	b.n	8000624 <HAL_RCC_OscConfig+0x60>
        if((HAL_GetTick() - tickstart) > HSI14_TIMEOUT_VALUE)
 80008d0:	f7ff fcec 	bl	80002ac <HAL_GetTick>
 80008d4:	1bc0      	subs	r0, r0, r7
 80008d6:	2802      	cmp	r0, #2
 80008d8:	d9f6      	bls.n	80008c8 <HAL_RCC_OscConfig+0x304>
 80008da:	e6d9      	b.n	8000690 <HAL_RCC_OscConfig+0xcc>
 80008dc:	40021000 	.word	0x40021000
 80008e0:	fffeffff 	.word	0xfffeffff
 80008e4:	fffbffff 	.word	0xfffbffff
 80008e8:	40007000 	.word	0x40007000
 80008ec:	00001388 	.word	0x00001388
 80008f0:	efffffff 	.word	0xefffffff
    if(__HAL_RCC_GET_SYSCLK_SOURCE() != RCC_SYSCLKSOURCE_STATUS_PLLCLK)
 80008f4:	220c      	movs	r2, #12
 80008f6:	4c26      	ldr	r4, [pc, #152]	; (8000990 <HAL_RCC_OscConfig+0x3cc>)
      return HAL_ERROR;
 80008f8:	2001      	movs	r0, #1
    if(__HAL_RCC_GET_SYSCLK_SOURCE() != RCC_SYSCLKSOURCE_STATUS_PLLCLK)
 80008fa:	6863      	ldr	r3, [r4, #4]
 80008fc:	4013      	ands	r3, r2
 80008fe:	2b08      	cmp	r3, #8
 8000900:	d100      	bne.n	8000904 <HAL_RCC_OscConfig+0x340>
 8000902:	e6ae      	b.n	8000662 <HAL_RCC_OscConfig+0x9e>
        __HAL_RCC_PLL_DISABLE();
 8000904:	6823      	ldr	r3, [r4, #0]
 8000906:	4a23      	ldr	r2, [pc, #140]	; (8000994 <HAL_RCC_OscConfig+0x3d0>)
 8000908:	4013      	ands	r3, r2
 800090a:	6023      	str	r3, [r4, #0]
      if((RCC_OscInitStruct->PLL.PLLState) == RCC_PLL_ON)
 800090c:	2902      	cmp	r1, #2
 800090e:	d12f      	bne.n	8000970 <HAL_RCC_OscConfig+0x3ac>
        tickstart = HAL_GetTick();
 8000910:	f7ff fccc 	bl	80002ac <HAL_GetTick>
        while(__HAL_RCC_GET_FLAG(RCC_FLAG_PLLRDY)  != RESET)
 8000914:	2680      	movs	r6, #128	; 0x80
        tickstart = HAL_GetTick();
 8000916:	0007      	movs	r7, r0
        while(__HAL_RCC_GET_FLAG(RCC_FLAG_PLLRDY)  != RESET)
 8000918:	04b6      	lsls	r6, r6, #18
 800091a:	6823      	ldr	r3, [r4, #0]
 800091c:	4233      	tst	r3, r6
 800091e:	d121      	bne.n	8000964 <HAL_RCC_OscConfig+0x3a0>
        __HAL_RCC_PLL_CONFIG(RCC_OscInitStruct->PLL.PLLSource,
 8000920:	220f      	movs	r2, #15
 8000922:	6ae3      	ldr	r3, [r4, #44]	; 0x2c
 8000924:	4393      	bics	r3, r2
 8000926:	6aea      	ldr	r2, [r5, #44]	; 0x2c
 8000928:	4313      	orrs	r3, r2
 800092a:	62e3      	str	r3, [r4, #44]	; 0x2c
 800092c:	6a69      	ldr	r1, [r5, #36]	; 0x24
 800092e:	6aab      	ldr	r3, [r5, #40]	; 0x28
 8000930:	6862      	ldr	r2, [r4, #4]
 8000932:	430b      	orrs	r3, r1
 8000934:	4918      	ldr	r1, [pc, #96]	; (8000998 <HAL_RCC_OscConfig+0x3d4>)
        while(__HAL_RCC_GET_FLAG(RCC_FLAG_PLLRDY)  == RESET)
 8000936:	2580      	movs	r5, #128	; 0x80
        __HAL_RCC_PLL_CONFIG(RCC_OscInitStruct->PLL.PLLSource,
 8000938:	400a      	ands	r2, r1
 800093a:	4313      	orrs	r3, r2
 800093c:	6063      	str	r3, [r4, #4]
        __HAL_RCC_PLL_ENABLE();
 800093e:	2380      	movs	r3, #128	; 0x80
 8000940:	6822      	ldr	r2, [r4, #0]
 8000942:	045b      	lsls	r3, r3, #17
 8000944:	4313      	orrs	r3, r2
 8000946:	6023      	str	r3, [r4, #0]
        tickstart = HAL_GetTick();
 8000948:	f7ff fcb0 	bl	80002ac <HAL_GetTick>
 800094c:	0006      	movs	r6, r0
        while(__HAL_RCC_GET_FLAG(RCC_FLAG_PLLRDY)  == RESET)
 800094e:	04ad      	lsls	r5, r5, #18
 8000950:	6823      	ldr	r3, [r4, #0]
 8000952:	422b      	tst	r3, r5
 8000954:	d000      	beq.n	8000958 <HAL_RCC_OscConfig+0x394>
 8000956:	e669      	b.n	800062c <HAL_RCC_OscConfig+0x68>
          if((HAL_GetTick() - tickstart ) > PLL_TIMEOUT_VALUE)
 8000958:	f7ff fca8 	bl	80002ac <HAL_GetTick>
 800095c:	1b80      	subs	r0, r0, r6
 800095e:	2802      	cmp	r0, #2
 8000960:	d9f6      	bls.n	8000950 <HAL_RCC_OscConfig+0x38c>
 8000962:	e695      	b.n	8000690 <HAL_RCC_OscConfig+0xcc>
          if((HAL_GetTick() - tickstart ) > PLL_TIMEOUT_VALUE)
 8000964:	f7ff fca2 	bl	80002ac <HAL_GetTick>
 8000968:	1bc0      	subs	r0, r0, r7
 800096a:	2802      	cmp	r0, #2
 800096c:	d9d5      	bls.n	800091a <HAL_RCC_OscConfig+0x356>
 800096e:	e68f      	b.n	8000690 <HAL_RCC_OscConfig+0xcc>
        tickstart = HAL_GetTick();
 8000970:	f7ff fc9c 	bl	80002ac <HAL_GetTick>
        while(__HAL_RCC_GET_FLAG(RCC_FLAG_PLLRDY)  != RESET)
 8000974:	2580      	movs	r5, #128	; 0x80
        tickstart = HAL_GetTick();
 8000976:	0006      	movs	r6, r0
        while(__HAL_RCC_GET_FLAG(RCC_FLAG_PLLRDY)  != RESET)
 8000978:	04ad      	lsls	r5, r5, #18
 800097a:	6823      	ldr	r3, [r4, #0]
 800097c:	422b      	tst	r3, r5
 800097e:	d100      	bne.n	8000982 <HAL_RCC_OscConfig+0x3be>
 8000980:	e654      	b.n	800062c <HAL_RCC_OscConfig+0x68>
          if((HAL_GetTick() - tickstart ) > PLL_TIMEOUT_VALUE)
 8000982:	f7ff fc93 	bl	80002ac <HAL_GetTick>
 8000986:	1b80      	subs	r0, r0, r6
 8000988:	2802      	cmp	r0, #2
 800098a:	d9f6      	bls.n	800097a <HAL_RCC_OscConfig+0x3b6>
 800098c:	e680      	b.n	8000690 <HAL_RCC_OscConfig+0xcc>
 800098e:	46c0      	nop			; (mov r8, r8)
 8000990:	40021000 	.word	0x40021000
 8000994:	feffffff 	.word	0xfeffffff
 8000998:	ffc27fff 	.word	0xffc27fff

0800099c <HAL_RCC_GetSysClockFreq>:
  *         right SYSCLK value. Otherwise, any configuration based on this function will be incorrect.
  *         
  * @retval SYSCLK frequency
  */
uint32_t HAL_RCC_GetSysClockFreq(void)
{
 800099c:	b530      	push	{r4, r5, lr}
  const uint8_t aPLLMULFactorTable[16] = { 2U,  3U,  4U,  5U,  6U,  7U,  8U,  9U,
 800099e:	4d12      	ldr	r5, [pc, #72]	; (80009e8 <HAL_RCC_GetSysClockFreq+0x4c>)
{
 80009a0:	b089      	sub	sp, #36	; 0x24
  const uint8_t aPLLMULFactorTable[16] = { 2U,  3U,  4U,  5U,  6U,  7U,  8U,  9U,
 80009a2:	2210      	movs	r2, #16
 80009a4:	0029      	movs	r1, r5
 80009a6:	4668      	mov	r0, sp
 80009a8:	f002 fba8 	bl	80030fc <memcpy>
                                         10U, 11U, 12U, 13U, 14U, 15U, 16U, 16U};
  const uint8_t aPredivFactorTable[16] = { 1U, 2U,  3U,  4U,  5U,  6U,  7U,  8U,
 80009ac:	0029      	movs	r1, r5
 80009ae:	ac04      	add	r4, sp, #16
 80009b0:	3110      	adds	r1, #16
 80009b2:	2210      	movs	r2, #16
 80009b4:	0020      	movs	r0, r4
 80009b6:	f002 fba1 	bl	80030fc <memcpy>
  uint32_t sysclockfreq = 0U;
  
  tmpreg = RCC->CFGR;
  
  /* Get SYSCLK source -------------------------------------------------------*/
  switch (tmpreg & RCC_CFGR_SWS)
 80009ba:	220c      	movs	r2, #12
  tmpreg = RCC->CFGR;
 80009bc:	490b      	ldr	r1, [pc, #44]	; (80009ec <HAL_RCC_GetSysClockFreq+0x50>)
 80009be:	684b      	ldr	r3, [r1, #4]
  switch (tmpreg & RCC_CFGR_SWS)
 80009c0:	401a      	ands	r2, r3
 80009c2:	2a08      	cmp	r2, #8
 80009c4:	d10d      	bne.n	80009e2 <HAL_RCC_GetSysClockFreq+0x46>
      break;
    }
    case RCC_SYSCLKSOURCE_STATUS_PLLCLK:  /* PLL used as system clock */
    {
      pllmul = aPLLMULFactorTable[(uint32_t)(tmpreg & RCC_CFGR_PLLMUL) >> RCC_CFGR_PLLMUL_BITNUMBER];
      prediv = aPredivFactorTable[(uint32_t)(RCC->CFGR2 & RCC_CFGR2_PREDIV) >> RCC_CFGR2_PREDIV_BITNUMBER];
 80009c6:	6aca      	ldr	r2, [r1, #44]	; 0x2c
      pllmul = aPLLMULFactorTable[(uint32_t)(tmpreg & RCC_CFGR_PLLMUL) >> RCC_CFGR_PLLMUL_BITNUMBER];
 80009c8:	210f      	movs	r1, #15
 80009ca:	4668      	mov	r0, sp
 80009cc:	0c9b      	lsrs	r3, r3, #18
 80009ce:	400b      	ands	r3, r1
      prediv = aPredivFactorTable[(uint32_t)(RCC->CFGR2 & RCC_CFGR2_PREDIV) >> RCC_CFGR2_PREDIV_BITNUMBER];
 80009d0:	400a      	ands	r2, r1
      pllmul = aPLLMULFactorTable[(uint32_t)(tmpreg & RCC_CFGR_PLLMUL) >> RCC_CFGR_PLLMUL_BITNUMBER];
 80009d2:	5cc5      	ldrb	r5, [r0, r3]
      prediv = aPredivFactorTable[(uint32_t)(RCC->CFGR2 & RCC_CFGR2_PREDIV) >> RCC_CFGR2_PREDIV_BITNUMBER];
 80009d4:	5ca1      	ldrb	r1, [r4, r2]
#endif /* RCC_CFGR_PLLSRC_HSI48_PREDIV */
      else
      {
#if  (defined(STM32F042x6) || defined(STM32F048xx) || defined(STM32F070x6) || defined(STM32F071xB) || defined(STM32F072xB) || defined(STM32F078xx) || defined(STM32F070xB) || defined(STM32F091xC) || defined(STM32F098xx) || defined(STM32F030xC))
        /* HSI used as PLL clock source : PLLCLK = HSI/PREDIV * PLLMUL */
        pllclk = (HSI_VALUE / prediv) * pllmul;
 80009d6:	4806      	ldr	r0, [pc, #24]	; (80009f0 <HAL_RCC_GetSysClockFreq+0x54>)
 80009d8:	f7ff fbb2 	bl	8000140 <__udivsi3>
 80009dc:	4368      	muls	r0, r5
      sysclockfreq = HSI_VALUE;
      break;
    }
  }
  return sysclockfreq;
}
 80009de:	b009      	add	sp, #36	; 0x24
 80009e0:	bd30      	pop	{r4, r5, pc}
      sysclockfreq = HSE_VALUE;
 80009e2:	4803      	ldr	r0, [pc, #12]	; (80009f0 <HAL_RCC_GetSysClockFreq+0x54>)
  return sysclockfreq;
 80009e4:	e7fb      	b.n	80009de <HAL_RCC_GetSysClockFreq+0x42>
 80009e6:	46c0      	nop			; (mov r8, r8)
 80009e8:	08003138 	.word	0x08003138
 80009ec:	40021000 	.word	0x40021000
 80009f0:	007a1200 	.word	0x007a1200

080009f4 <HAL_RCC_ClockConfig>:
{
 80009f4:	b5f7      	push	{r0, r1, r2, r4, r5, r6, r7, lr}
  if(FLatency > (FLASH->ACR & FLASH_ACR_LATENCY))
 80009f6:	2201      	movs	r2, #1
 80009f8:	4c43      	ldr	r4, [pc, #268]	; (8000b08 <HAL_RCC_ClockConfig+0x114>)
{
 80009fa:	0006      	movs	r6, r0
  if(FLatency > (FLASH->ACR & FLASH_ACR_LATENCY))
 80009fc:	6823      	ldr	r3, [r4, #0]
{
 80009fe:	000f      	movs	r7, r1
  if(FLatency > (FLASH->ACR & FLASH_ACR_LATENCY))
 8000a00:	4013      	ands	r3, r2
 8000a02:	428b      	cmp	r3, r1
 8000a04:	d31c      	bcc.n	8000a40 <HAL_RCC_ClockConfig+0x4c>
  if(((RCC_ClkInitStruct->ClockType) & RCC_CLOCKTYPE_HCLK) == RCC_CLOCKTYPE_HCLK)
 8000a06:	6832      	ldr	r2, [r6, #0]
 8000a08:	0793      	lsls	r3, r2, #30
 8000a0a:	d423      	bmi.n	8000a54 <HAL_RCC_ClockConfig+0x60>
  if(((RCC_ClkInitStruct->ClockType) & RCC_CLOCKTYPE_SYSCLK) == RCC_CLOCKTYPE_SYSCLK)
 8000a0c:	07d3      	lsls	r3, r2, #31
 8000a0e:	d429      	bmi.n	8000a64 <HAL_RCC_ClockConfig+0x70>
  if(FLatency < (FLASH->ACR & FLASH_ACR_LATENCY))
 8000a10:	2301      	movs	r3, #1
 8000a12:	6822      	ldr	r2, [r4, #0]
 8000a14:	401a      	ands	r2, r3
 8000a16:	4297      	cmp	r7, r2
 8000a18:	d367      	bcc.n	8000aea <HAL_RCC_ClockConfig+0xf6>
  if(((RCC_ClkInitStruct->ClockType) & RCC_CLOCKTYPE_PCLK1) == RCC_CLOCKTYPE_PCLK1)
 8000a1a:	6833      	ldr	r3, [r6, #0]
 8000a1c:	4c3b      	ldr	r4, [pc, #236]	; (8000b0c <HAL_RCC_ClockConfig+0x118>)
 8000a1e:	075b      	lsls	r3, r3, #29
 8000a20:	d46a      	bmi.n	8000af8 <HAL_RCC_ClockConfig+0x104>
  SystemCoreClock = HAL_RCC_GetSysClockFreq() >> AHBPrescTable[(RCC->CFGR & RCC_CFGR_HPRE)>> RCC_CFGR_HPRE_BITNUMBER];
 8000a22:	f7ff ffbb 	bl	800099c <HAL_RCC_GetSysClockFreq>
 8000a26:	6863      	ldr	r3, [r4, #4]
 8000a28:	4a39      	ldr	r2, [pc, #228]	; (8000b10 <HAL_RCC_ClockConfig+0x11c>)
 8000a2a:	061b      	lsls	r3, r3, #24
 8000a2c:	0f1b      	lsrs	r3, r3, #28
 8000a2e:	5cd3      	ldrb	r3, [r2, r3]
 8000a30:	40d8      	lsrs	r0, r3
 8000a32:	4b38      	ldr	r3, [pc, #224]	; (8000b14 <HAL_RCC_ClockConfig+0x120>)
 8000a34:	6018      	str	r0, [r3, #0]
  HAL_InitTick (TICK_INT_PRIORITY);
 8000a36:	2003      	movs	r0, #3
 8000a38:	f7ff fc0e 	bl	8000258 <HAL_InitTick>
  return HAL_OK;
 8000a3c:	2000      	movs	r0, #0
 8000a3e:	e008      	b.n	8000a52 <HAL_RCC_ClockConfig+0x5e>
    __HAL_FLASH_SET_LATENCY(FLatency);
 8000a40:	6823      	ldr	r3, [r4, #0]
 8000a42:	4393      	bics	r3, r2
 8000a44:	430b      	orrs	r3, r1
 8000a46:	6023      	str	r3, [r4, #0]
    if((FLASH->ACR & FLASH_ACR_LATENCY) != FLatency)
 8000a48:	6823      	ldr	r3, [r4, #0]
 8000a4a:	4013      	ands	r3, r2
 8000a4c:	4299      	cmp	r1, r3
 8000a4e:	d0da      	beq.n	8000a06 <HAL_RCC_ClockConfig+0x12>
      return HAL_ERROR;
 8000a50:	2001      	movs	r0, #1
}
 8000a52:	bdfe      	pop	{r1, r2, r3, r4, r5, r6, r7, pc}
    MODIFY_REG(RCC->CFGR, RCC_CFGR_HPRE, RCC_ClkInitStruct->AHBCLKDivider);
 8000a54:	20f0      	movs	r0, #240	; 0xf0
 8000a56:	492d      	ldr	r1, [pc, #180]	; (8000b0c <HAL_RCC_ClockConfig+0x118>)
 8000a58:	684b      	ldr	r3, [r1, #4]
 8000a5a:	4383      	bics	r3, r0
 8000a5c:	68b0      	ldr	r0, [r6, #8]
 8000a5e:	4303      	orrs	r3, r0
 8000a60:	604b      	str	r3, [r1, #4]
 8000a62:	e7d3      	b.n	8000a0c <HAL_RCC_ClockConfig+0x18>
 8000a64:	4d29      	ldr	r5, [pc, #164]	; (8000b0c <HAL_RCC_ClockConfig+0x118>)
    if(RCC_ClkInitStruct->SYSCLKSource == RCC_SYSCLKSOURCE_HSE)
 8000a66:	6872      	ldr	r2, [r6, #4]
      if(__HAL_RCC_GET_FLAG(RCC_FLAG_HSERDY) == RESET)
 8000a68:	682b      	ldr	r3, [r5, #0]
    if(RCC_ClkInitStruct->SYSCLKSource == RCC_SYSCLKSOURCE_HSE)
 8000a6a:	2a01      	cmp	r2, #1
 8000a6c:	d11a      	bne.n	8000aa4 <HAL_RCC_ClockConfig+0xb0>
      if(__HAL_RCC_GET_FLAG(RCC_FLAG_HSERDY) == RESET)
 8000a6e:	039b      	lsls	r3, r3, #14
 8000a70:	d5ee      	bpl.n	8000a50 <HAL_RCC_ClockConfig+0x5c>
    __HAL_RCC_SYSCLK_CONFIG(RCC_ClkInitStruct->SYSCLKSource);
 8000a72:	2103      	movs	r1, #3
 8000a74:	686b      	ldr	r3, [r5, #4]
 8000a76:	438b      	bics	r3, r1
 8000a78:	4313      	orrs	r3, r2
 8000a7a:	606b      	str	r3, [r5, #4]
    tickstart = HAL_GetTick();
 8000a7c:	f7ff fc16 	bl	80002ac <HAL_GetTick>
    if(RCC_ClkInitStruct->SYSCLKSource == RCC_SYSCLKSOURCE_HSE)
 8000a80:	6873      	ldr	r3, [r6, #4]
    tickstart = HAL_GetTick();
 8000a82:	9001      	str	r0, [sp, #4]
    if(RCC_ClkInitStruct->SYSCLKSource == RCC_SYSCLKSOURCE_HSE)
 8000a84:	2b01      	cmp	r3, #1
 8000a86:	d115      	bne.n	8000ab4 <HAL_RCC_ClockConfig+0xc0>
      while (__HAL_RCC_GET_SYSCLK_SOURCE() != RCC_SYSCLKSOURCE_STATUS_HSE)
 8000a88:	220c      	movs	r2, #12
 8000a8a:	686b      	ldr	r3, [r5, #4]
 8000a8c:	4013      	ands	r3, r2
 8000a8e:	2b04      	cmp	r3, #4
 8000a90:	d0be      	beq.n	8000a10 <HAL_RCC_ClockConfig+0x1c>
        if((HAL_GetTick() - tickstart ) > CLOCKSWITCH_TIMEOUT_VALUE)
 8000a92:	f7ff fc0b 	bl	80002ac <HAL_GetTick>
 8000a96:	9b01      	ldr	r3, [sp, #4]
 8000a98:	1ac0      	subs	r0, r0, r3
 8000a9a:	4b1f      	ldr	r3, [pc, #124]	; (8000b18 <HAL_RCC_ClockConfig+0x124>)
 8000a9c:	4298      	cmp	r0, r3
 8000a9e:	d9f3      	bls.n	8000a88 <HAL_RCC_ClockConfig+0x94>
          return HAL_TIMEOUT;
 8000aa0:	2003      	movs	r0, #3
 8000aa2:	e7d6      	b.n	8000a52 <HAL_RCC_ClockConfig+0x5e>
    else if(RCC_ClkInitStruct->SYSCLKSource == RCC_SYSCLKSOURCE_PLLCLK)
 8000aa4:	2a02      	cmp	r2, #2
 8000aa6:	d102      	bne.n	8000aae <HAL_RCC_ClockConfig+0xba>
      if(__HAL_RCC_GET_FLAG(RCC_FLAG_PLLRDY) == RESET)
 8000aa8:	019b      	lsls	r3, r3, #6
 8000aaa:	d4e2      	bmi.n	8000a72 <HAL_RCC_ClockConfig+0x7e>
 8000aac:	e7d0      	b.n	8000a50 <HAL_RCC_ClockConfig+0x5c>
      if(__HAL_RCC_GET_FLAG(RCC_FLAG_HSIRDY) == RESET)
 8000aae:	079b      	lsls	r3, r3, #30
 8000ab0:	d4df      	bmi.n	8000a72 <HAL_RCC_ClockConfig+0x7e>
 8000ab2:	e7cd      	b.n	8000a50 <HAL_RCC_ClockConfig+0x5c>
    else if(RCC_ClkInitStruct->SYSCLKSource == RCC_SYSCLKSOURCE_PLLCLK)
 8000ab4:	2b02      	cmp	r3, #2
 8000ab6:	d012      	beq.n	8000ade <HAL_RCC_ClockConfig+0xea>
      while (__HAL_RCC_GET_SYSCLK_SOURCE() != RCC_SYSCLKSOURCE_STATUS_HSI)
 8000ab8:	220c      	movs	r2, #12
 8000aba:	686b      	ldr	r3, [r5, #4]
 8000abc:	4213      	tst	r3, r2
 8000abe:	d0a7      	beq.n	8000a10 <HAL_RCC_ClockConfig+0x1c>
        if((HAL_GetTick() - tickstart ) > CLOCKSWITCH_TIMEOUT_VALUE)
 8000ac0:	f7ff fbf4 	bl	80002ac <HAL_GetTick>
 8000ac4:	9b01      	ldr	r3, [sp, #4]
 8000ac6:	1ac0      	subs	r0, r0, r3
 8000ac8:	4b13      	ldr	r3, [pc, #76]	; (8000b18 <HAL_RCC_ClockConfig+0x124>)
 8000aca:	4298      	cmp	r0, r3
 8000acc:	d9f4      	bls.n	8000ab8 <HAL_RCC_ClockConfig+0xc4>
 8000ace:	e7e7      	b.n	8000aa0 <HAL_RCC_ClockConfig+0xac>
        if((HAL_GetTick() - tickstart ) > CLOCKSWITCH_TIMEOUT_VALUE)
 8000ad0:	f7ff fbec 	bl	80002ac <HAL_GetTick>
 8000ad4:	9b01      	ldr	r3, [sp, #4]
 8000ad6:	1ac0      	subs	r0, r0, r3
 8000ad8:	4b0f      	ldr	r3, [pc, #60]	; (8000b18 <HAL_RCC_ClockConfig+0x124>)
 8000ada:	4298      	cmp	r0, r3
 8000adc:	d8e0      	bhi.n	8000aa0 <HAL_RCC_ClockConfig+0xac>
      while (__HAL_RCC_GET_SYSCLK_SOURCE() != RCC_SYSCLKSOURCE_STATUS_PLLCLK)
 8000ade:	220c      	movs	r2, #12
 8000ae0:	686b      	ldr	r3, [r5, #4]
 8000ae2:	4013      	ands	r3, r2
 8000ae4:	2b08      	cmp	r3, #8
 8000ae6:	d1f3      	bne.n	8000ad0 <HAL_RCC_ClockConfig+0xdc>
 8000ae8:	e792      	b.n	8000a10 <HAL_RCC_ClockConfig+0x1c>
    __HAL_FLASH_SET_LATENCY(FLatency);
 8000aea:	6822      	ldr	r2, [r4, #0]
 8000aec:	439a      	bics	r2, r3
 8000aee:	6022      	str	r2, [r4, #0]
    if((FLASH->ACR & FLASH_ACR_LATENCY) != FLatency)
 8000af0:	6822      	ldr	r2, [r4, #0]
 8000af2:	421a      	tst	r2, r3
 8000af4:	d1ac      	bne.n	8000a50 <HAL_RCC_ClockConfig+0x5c>
 8000af6:	e790      	b.n	8000a1a <HAL_RCC_ClockConfig+0x26>
    MODIFY_REG(RCC->CFGR, RCC_CFGR_PPRE, RCC_ClkInitStruct->APB1CLKDivider);
 8000af8:	6863      	ldr	r3, [r4, #4]
 8000afa:	4a08      	ldr	r2, [pc, #32]	; (8000b1c <HAL_RCC_ClockConfig+0x128>)
 8000afc:	4013      	ands	r3, r2
 8000afe:	68f2      	ldr	r2, [r6, #12]
 8000b00:	4313      	orrs	r3, r2
 8000b02:	6063      	str	r3, [r4, #4]
 8000b04:	e78d      	b.n	8000a22 <HAL_RCC_ClockConfig+0x2e>
 8000b06:	46c0      	nop			; (mov r8, r8)
 8000b08:	40022000 	.word	0x40022000
 8000b0c:	40021000 	.word	0x40021000
 8000b10:	080031ac 	.word	0x080031ac
 8000b14:	20000004 	.word	0x20000004
 8000b18:	00001388 	.word	0x00001388
 8000b1c:	fffff8ff 	.word	0xfffff8ff

08000b20 <HAL_RCC_GetHCLKFreq>:
  *         and updated within this function
  * @retval HCLK frequency
  */
uint32_t HAL_RCC_GetHCLKFreq(void)
{
  return SystemCoreClock;
 8000b20:	4b01      	ldr	r3, [pc, #4]	; (8000b28 <HAL_RCC_GetHCLKFreq+0x8>)
 8000b22:	6818      	ldr	r0, [r3, #0]
}
 8000b24:	4770      	bx	lr
 8000b26:	46c0      	nop			; (mov r8, r8)
 8000b28:	20000004 	.word	0x20000004

08000b2c <HAL_RCC_GetPCLK1Freq>:
  * @retval PCLK1 frequency
  */
uint32_t HAL_RCC_GetPCLK1Freq(void)
{
  /* Get HCLK source and Compute PCLK1 frequency ---------------------------*/
  return (HAL_RCC_GetHCLKFreq() >> APBPrescTable[(RCC->CFGR & RCC_CFGR_PPRE) >> RCC_CFGR_PPRE_BITNUMBER]);
 8000b2c:	4b04      	ldr	r3, [pc, #16]	; (8000b40 <HAL_RCC_GetPCLK1Freq+0x14>)
 8000b2e:	4a05      	ldr	r2, [pc, #20]	; (8000b44 <HAL_RCC_GetPCLK1Freq+0x18>)
 8000b30:	685b      	ldr	r3, [r3, #4]
 8000b32:	055b      	lsls	r3, r3, #21
 8000b34:	0f5b      	lsrs	r3, r3, #29
 8000b36:	5cd3      	ldrb	r3, [r2, r3]
 8000b38:	4a03      	ldr	r2, [pc, #12]	; (8000b48 <HAL_RCC_GetPCLK1Freq+0x1c>)
 8000b3a:	6810      	ldr	r0, [r2, #0]
 8000b3c:	40d8      	lsrs	r0, r3
}    
 8000b3e:	4770      	bx	lr
 8000b40:	40021000 	.word	0x40021000
 8000b44:	080031bc 	.word	0x080031bc
 8000b48:	20000004 	.word	0x20000004

08000b4c <HAL_RCCEx_PeriphCLKConfig>:
  *         the backup registers) and RCC_BDCR register are set to their reset values.
  *
  * @retval HAL status
  */
HAL_StatusTypeDef HAL_RCCEx_PeriphCLKConfig(RCC_PeriphCLKInitTypeDef  *PeriphClkInit)
{
 8000b4c:	b5f0      	push	{r4, r5, r6, r7, lr}

  /* Check the parameters */
  assert_param(IS_RCC_PERIPHCLOCK(PeriphClkInit->PeriphClockSelection));
  
  /*---------------------------- RTC configuration -------------------------------*/
  if(((PeriphClkInit->PeriphClockSelection) & RCC_PERIPHCLK_RTC) == (RCC_PERIPHCLK_RTC))
 8000b4e:	6803      	ldr	r3, [r0, #0]
{
 8000b50:	b085      	sub	sp, #20
 8000b52:	0005      	movs	r5, r0
  if(((PeriphClkInit->PeriphClockSelection) & RCC_PERIPHCLK_RTC) == (RCC_PERIPHCLK_RTC))
 8000b54:	03db      	lsls	r3, r3, #15
 8000b56:	d528      	bpl.n	8000baa <HAL_RCCEx_PeriphCLKConfig+0x5e>
    FlagStatus       pwrclkchanged = RESET;

    /* As soon as function is called to change RTC clock source, activation of the 
       power domain is done. */
    /* Requires to enable write access to Backup Domain of necessary */
    if(__HAL_RCC_PWR_IS_CLK_DISABLED())
 8000b58:	2280      	movs	r2, #128	; 0x80
    FlagStatus       pwrclkchanged = RESET;
 8000b5a:	2100      	movs	r1, #0
    if(__HAL_RCC_PWR_IS_CLK_DISABLED())
 8000b5c:	4c3b      	ldr	r4, [pc, #236]	; (8000c4c <HAL_RCCEx_PeriphCLKConfig+0x100>)
 8000b5e:	0552      	lsls	r2, r2, #21
 8000b60:	69e3      	ldr	r3, [r4, #28]
    FlagStatus       pwrclkchanged = RESET;
 8000b62:	9100      	str	r1, [sp, #0]
    if(__HAL_RCC_PWR_IS_CLK_DISABLED())
 8000b64:	4213      	tst	r3, r2
 8000b66:	d108      	bne.n	8000b7a <HAL_RCCEx_PeriphCLKConfig+0x2e>
    {
    __HAL_RCC_PWR_CLK_ENABLE();
 8000b68:	69e3      	ldr	r3, [r4, #28]
 8000b6a:	4313      	orrs	r3, r2
 8000b6c:	61e3      	str	r3, [r4, #28]
 8000b6e:	69e3      	ldr	r3, [r4, #28]
 8000b70:	4013      	ands	r3, r2
 8000b72:	9303      	str	r3, [sp, #12]
 8000b74:	9b03      	ldr	r3, [sp, #12]
      pwrclkchanged = SET;
 8000b76:	2301      	movs	r3, #1
 8000b78:	9300      	str	r3, [sp, #0]
    }
    
    if(HAL_IS_BIT_CLR(PWR->CR, PWR_CR_DBP))
 8000b7a:	2780      	movs	r7, #128	; 0x80
 8000b7c:	4e34      	ldr	r6, [pc, #208]	; (8000c50 <HAL_RCCEx_PeriphCLKConfig+0x104>)
 8000b7e:	007f      	lsls	r7, r7, #1
 8000b80:	6833      	ldr	r3, [r6, #0]
 8000b82:	423b      	tst	r3, r7
 8000b84:	d02f      	beq.n	8000be6 <HAL_RCCEx_PeriphCLKConfig+0x9a>
        }
      }
    }
    
    /* Reset the Backup domain only if the RTC Clock source selection is modified from reset value */ 
    temp_reg = (RCC->BDCR & RCC_BDCR_RTCSEL);
 8000b86:	22c0      	movs	r2, #192	; 0xc0
 8000b88:	6a23      	ldr	r3, [r4, #32]
 8000b8a:	0092      	lsls	r2, r2, #2
 8000b8c:	4013      	ands	r3, r2
 8000b8e:	4e31      	ldr	r6, [pc, #196]	; (8000c54 <HAL_RCCEx_PeriphCLKConfig+0x108>)
    if((temp_reg != 0x00000000U) && (temp_reg != (PeriphClkInit->RTCClockSelection & RCC_BDCR_RTCSEL)))
 8000b90:	d13b      	bne.n	8000c0a <HAL_RCCEx_PeriphCLKConfig+0xbe>
            return HAL_TIMEOUT;
          }
        }
      }
    }
    __HAL_RCC_RTC_CONFIG(PeriphClkInit->RTCClockSelection);
 8000b92:	6a23      	ldr	r3, [r4, #32]
 8000b94:	401e      	ands	r6, r3
 8000b96:	686b      	ldr	r3, [r5, #4]
 8000b98:	431e      	orrs	r6, r3

    /* Require to disable power clock if necessary */
    if(pwrclkchanged == SET)
 8000b9a:	9b00      	ldr	r3, [sp, #0]
    __HAL_RCC_RTC_CONFIG(PeriphClkInit->RTCClockSelection);
 8000b9c:	6226      	str	r6, [r4, #32]
    if(pwrclkchanged == SET)
 8000b9e:	2b01      	cmp	r3, #1
 8000ba0:	d103      	bne.n	8000baa <HAL_RCCEx_PeriphCLKConfig+0x5e>
    {
      __HAL_RCC_PWR_CLK_DISABLE();
 8000ba2:	69e3      	ldr	r3, [r4, #28]
 8000ba4:	4a2c      	ldr	r2, [pc, #176]	; (8000c58 <HAL_RCCEx_PeriphCLKConfig+0x10c>)
 8000ba6:	4013      	ands	r3, r2
 8000ba8:	61e3      	str	r3, [r4, #28]
    }
  }

  /*------------------------------- USART1 Configuration ------------------------*/ 
  if(((PeriphClkInit->PeriphClockSelection) & RCC_PERIPHCLK_USART1) == RCC_PERIPHCLK_USART1)
 8000baa:	682a      	ldr	r2, [r5, #0]
 8000bac:	07d3      	lsls	r3, r2, #31
 8000bae:	d506      	bpl.n	8000bbe <HAL_RCCEx_PeriphCLKConfig+0x72>
  {
    /* Check the parameters */
    assert_param(IS_RCC_USART1CLKSOURCE(PeriphClkInit->Usart1ClockSelection));
    
    /* Configure the USART1 clock source */
    __HAL_RCC_USART1_CONFIG(PeriphClkInit->Usart1ClockSelection);
 8000bb0:	2003      	movs	r0, #3
 8000bb2:	4926      	ldr	r1, [pc, #152]	; (8000c4c <HAL_RCCEx_PeriphCLKConfig+0x100>)
 8000bb4:	6b0b      	ldr	r3, [r1, #48]	; 0x30
 8000bb6:	4383      	bics	r3, r0
 8000bb8:	68a8      	ldr	r0, [r5, #8]
 8000bba:	4303      	orrs	r3, r0
 8000bbc:	630b      	str	r3, [r1, #48]	; 0x30
    __HAL_RCC_USART3_CONFIG(PeriphClkInit->Usart3ClockSelection);
  }
#endif /* STM32F091xC || STM32F098xx */  

  /*------------------------------ I2C1 Configuration ------------------------*/ 
  if(((PeriphClkInit->PeriphClockSelection) & RCC_PERIPHCLK_I2C1) == RCC_PERIPHCLK_I2C1)
 8000bbe:	0693      	lsls	r3, r2, #26
 8000bc0:	d506      	bpl.n	8000bd0 <HAL_RCCEx_PeriphCLKConfig+0x84>
  {
    /* Check the parameters */
    assert_param(IS_RCC_I2C1CLKSOURCE(PeriphClkInit->I2c1ClockSelection));
    
    /* Configure the I2C1 clock source */
    __HAL_RCC_I2C1_CONFIG(PeriphClkInit->I2c1ClockSelection);
 8000bc2:	2010      	movs	r0, #16
 8000bc4:	4921      	ldr	r1, [pc, #132]	; (8000c4c <HAL_RCCEx_PeriphCLKConfig+0x100>)
 8000bc6:	6b0b      	ldr	r3, [r1, #48]	; 0x30
 8000bc8:	4383      	bics	r3, r0
 8000bca:	68e8      	ldr	r0, [r5, #12]
 8000bcc:	4303      	orrs	r3, r0
 8000bce:	630b      	str	r3, [r1, #48]	; 0x30
#endif /* STM32F042x6 || STM32F048xx ||                */
       /* STM32F051x8 || STM32F058xx ||                */
       /* STM32F071xB || STM32F072xB || STM32F078xx || */
       /* STM32F091xC || STM32F098xx */
  
  return HAL_OK;
 8000bd0:	2000      	movs	r0, #0
  if(((PeriphClkInit->PeriphClockSelection) & RCC_PERIPHCLK_USB) == RCC_PERIPHCLK_USB)
 8000bd2:	0393      	lsls	r3, r2, #14
 8000bd4:	d517      	bpl.n	8000c06 <HAL_RCCEx_PeriphCLKConfig+0xba>
    __HAL_RCC_USB_CONFIG(PeriphClkInit->UsbClockSelection);
 8000bd6:	2180      	movs	r1, #128	; 0x80
 8000bd8:	4a1c      	ldr	r2, [pc, #112]	; (8000c4c <HAL_RCCEx_PeriphCLKConfig+0x100>)
 8000bda:	6b13      	ldr	r3, [r2, #48]	; 0x30
 8000bdc:	438b      	bics	r3, r1
 8000bde:	6929      	ldr	r1, [r5, #16]
 8000be0:	430b      	orrs	r3, r1
 8000be2:	6313      	str	r3, [r2, #48]	; 0x30
 8000be4:	e00f      	b.n	8000c06 <HAL_RCCEx_PeriphCLKConfig+0xba>
      SET_BIT(PWR->CR, PWR_CR_DBP);
 8000be6:	6833      	ldr	r3, [r6, #0]
 8000be8:	433b      	orrs	r3, r7
 8000bea:	6033      	str	r3, [r6, #0]
      tickstart = HAL_GetTick();
 8000bec:	f7ff fb5e 	bl	80002ac <HAL_GetTick>
 8000bf0:	9001      	str	r0, [sp, #4]
      while(HAL_IS_BIT_CLR(PWR->CR, PWR_CR_DBP))
 8000bf2:	6833      	ldr	r3, [r6, #0]
 8000bf4:	423b      	tst	r3, r7
 8000bf6:	d1c6      	bne.n	8000b86 <HAL_RCCEx_PeriphCLKConfig+0x3a>
        if((HAL_GetTick() - tickstart) > RCC_DBP_TIMEOUT_VALUE)
 8000bf8:	f7ff fb58 	bl	80002ac <HAL_GetTick>
 8000bfc:	9b01      	ldr	r3, [sp, #4]
 8000bfe:	1ac0      	subs	r0, r0, r3
 8000c00:	2864      	cmp	r0, #100	; 0x64
 8000c02:	d9f6      	bls.n	8000bf2 <HAL_RCCEx_PeriphCLKConfig+0xa6>
          return HAL_TIMEOUT;
 8000c04:	2003      	movs	r0, #3
}
 8000c06:	b005      	add	sp, #20
 8000c08:	bdf0      	pop	{r4, r5, r6, r7, pc}
    if((temp_reg != 0x00000000U) && (temp_reg != (PeriphClkInit->RTCClockSelection & RCC_BDCR_RTCSEL)))
 8000c0a:	6869      	ldr	r1, [r5, #4]
 8000c0c:	400a      	ands	r2, r1
 8000c0e:	4293      	cmp	r3, r2
 8000c10:	d0bf      	beq.n	8000b92 <HAL_RCCEx_PeriphCLKConfig+0x46>
      __HAL_RCC_BACKUPRESET_FORCE();
 8000c12:	2380      	movs	r3, #128	; 0x80
      temp_reg = (RCC->BDCR & ~(RCC_BDCR_RTCSEL));
 8000c14:	6a22      	ldr	r2, [r4, #32]
      __HAL_RCC_BACKUPRESET_FORCE();
 8000c16:	6a20      	ldr	r0, [r4, #32]
      temp_reg = (RCC->BDCR & ~(RCC_BDCR_RTCSEL));
 8000c18:	0011      	movs	r1, r2
      __HAL_RCC_BACKUPRESET_FORCE();
 8000c1a:	025b      	lsls	r3, r3, #9
 8000c1c:	4303      	orrs	r3, r0
 8000c1e:	6223      	str	r3, [r4, #32]
      __HAL_RCC_BACKUPRESET_RELEASE();
 8000c20:	6a23      	ldr	r3, [r4, #32]
 8000c22:	480e      	ldr	r0, [pc, #56]	; (8000c5c <HAL_RCCEx_PeriphCLKConfig+0x110>)
      temp_reg = (RCC->BDCR & ~(RCC_BDCR_RTCSEL));
 8000c24:	4031      	ands	r1, r6
      __HAL_RCC_BACKUPRESET_RELEASE();
 8000c26:	4003      	ands	r3, r0
 8000c28:	6223      	str	r3, [r4, #32]
      RCC->BDCR = temp_reg;
 8000c2a:	6221      	str	r1, [r4, #32]
      if (HAL_IS_BIT_SET(temp_reg, RCC_BDCR_LSEON))
 8000c2c:	07d3      	lsls	r3, r2, #31
 8000c2e:	d5b0      	bpl.n	8000b92 <HAL_RCCEx_PeriphCLKConfig+0x46>
        tickstart = HAL_GetTick();
 8000c30:	f7ff fb3c 	bl	80002ac <HAL_GetTick>
 8000c34:	0007      	movs	r7, r0
        while(__HAL_RCC_GET_FLAG(RCC_FLAG_LSERDY) == RESET)
 8000c36:	2202      	movs	r2, #2
 8000c38:	6a23      	ldr	r3, [r4, #32]
 8000c3a:	4213      	tst	r3, r2
 8000c3c:	d1a9      	bne.n	8000b92 <HAL_RCCEx_PeriphCLKConfig+0x46>
          if((HAL_GetTick() - tickstart) > RCC_LSE_TIMEOUT_VALUE)
 8000c3e:	f7ff fb35 	bl	80002ac <HAL_GetTick>
 8000c42:	4b07      	ldr	r3, [pc, #28]	; (8000c60 <HAL_RCCEx_PeriphCLKConfig+0x114>)
 8000c44:	1bc0      	subs	r0, r0, r7
 8000c46:	4298      	cmp	r0, r3
 8000c48:	d9f5      	bls.n	8000c36 <HAL_RCCEx_PeriphCLKConfig+0xea>
 8000c4a:	e7db      	b.n	8000c04 <HAL_RCCEx_PeriphCLKConfig+0xb8>
 8000c4c:	40021000 	.word	0x40021000
 8000c50:	40007000 	.word	0x40007000
 8000c54:	fffffcff 	.word	0xfffffcff
 8000c58:	efffffff 	.word	0xefffffff
 8000c5c:	fffeffff 	.word	0xfffeffff
 8000c60:	00001388 	.word	0x00001388

08000c64 <HAL_RTC_AlarmIRQHandler>:
  * @retval None
  */
void HAL_RTC_AlarmIRQHandler(RTC_HandleTypeDef* hrtc)
{  
  /* Get the AlarmA interrupt source enable status */
  if(__HAL_RTC_ALARM_GET_IT_SOURCE(hrtc, RTC_IT_ALRA) != RESET)
 8000c64:	6803      	ldr	r3, [r0, #0]
{  
 8000c66:	b510      	push	{r4, lr}
  if(__HAL_RTC_ALARM_GET_IT_SOURCE(hrtc, RTC_IT_ALRA) != RESET)
 8000c68:	689a      	ldr	r2, [r3, #8]
{  
 8000c6a:	0004      	movs	r4, r0
  if(__HAL_RTC_ALARM_GET_IT_SOURCE(hrtc, RTC_IT_ALRA) != RESET)
 8000c6c:	04d2      	lsls	r2, r2, #19
 8000c6e:	d50a      	bpl.n	8000c86 <HAL_RTC_AlarmIRQHandler+0x22>
  {
    /* Get the pending status of the AlarmA Interrupt */
    if(__HAL_RTC_ALARM_GET_FLAG(hrtc, RTC_FLAG_ALRAF) != RESET)
 8000c70:	68db      	ldr	r3, [r3, #12]
 8000c72:	05db      	lsls	r3, r3, #23
 8000c74:	d507      	bpl.n	8000c86 <HAL_RTC_AlarmIRQHandler+0x22>
    {
      /* AlarmA callback */
      HAL_RTC_AlarmAEventCallback(hrtc);
 8000c76:	f001 fed5 	bl	8002a24 <HAL_RTC_AlarmAEventCallback>

      /* Clear the AlarmA interrupt pending bit */
      __HAL_RTC_ALARM_CLEAR_FLAG(hrtc, RTC_FLAG_ALRAF);
 8000c7a:	6821      	ldr	r1, [r4, #0]
 8000c7c:	4b05      	ldr	r3, [pc, #20]	; (8000c94 <HAL_RTC_AlarmIRQHandler+0x30>)
 8000c7e:	68ca      	ldr	r2, [r1, #12]
 8000c80:	b2d2      	uxtb	r2, r2
 8000c82:	4313      	orrs	r3, r2
 8000c84:	60cb      	str	r3, [r1, #12]
    }
  }
  
  /* Clear the EXTI's line Flag for RTC Alarm */
  __HAL_RTC_ALARM_EXTI_CLEAR_FLAG();
 8000c86:	2280      	movs	r2, #128	; 0x80
 8000c88:	4b03      	ldr	r3, [pc, #12]	; (8000c98 <HAL_RTC_AlarmIRQHandler+0x34>)
 8000c8a:	0292      	lsls	r2, r2, #10
 8000c8c:	615a      	str	r2, [r3, #20]
  
  /* Change RTC state */
  hrtc->State = HAL_RTC_STATE_READY; 
 8000c8e:	2301      	movs	r3, #1
 8000c90:	7763      	strb	r3, [r4, #29]
}
 8000c92:	bd10      	pop	{r4, pc}
 8000c94:	fffffe7f 	.word	0xfffffe7f
 8000c98:	40010400 	.word	0x40010400

08000c9c <HAL_RTC_WaitForSynchro>:
HAL_StatusTypeDef HAL_RTC_WaitForSynchro(RTC_HandleTypeDef* hrtc)
{
  uint32_t tickstart = 0U;

  /* Clear RSF flag */
  hrtc->Instance->ISR &= (uint32_t)RTC_RSF_MASK;
 8000c9c:	21a0      	movs	r1, #160	; 0xa0
 8000c9e:	6802      	ldr	r2, [r0, #0]
{
 8000ca0:	b5f8      	push	{r3, r4, r5, r6, r7, lr}
  hrtc->Instance->ISR &= (uint32_t)RTC_RSF_MASK;
 8000ca2:	68d3      	ldr	r3, [r2, #12]
{
 8000ca4:	0004      	movs	r4, r0
  hrtc->Instance->ISR &= (uint32_t)RTC_RSF_MASK;
 8000ca6:	438b      	bics	r3, r1
 8000ca8:	60d3      	str	r3, [r2, #12]

  tickstart = HAL_GetTick();
 8000caa:	f7ff faff 	bl	80002ac <HAL_GetTick>

  /* Wait the registers to be synchronised */
  while((hrtc->Instance->ISR & RTC_ISR_RSF) == (uint32_t)RESET)
  {
    if((HAL_GetTick()-tickstart) > RTC_TIMEOUT_VALUE)
 8000cae:	27fa      	movs	r7, #250	; 0xfa
  tickstart = HAL_GetTick();
 8000cb0:	0006      	movs	r6, r0
  while((hrtc->Instance->ISR & RTC_ISR_RSF) == (uint32_t)RESET)
 8000cb2:	2520      	movs	r5, #32
    if((HAL_GetTick()-tickstart) > RTC_TIMEOUT_VALUE)
 8000cb4:	00bf      	lsls	r7, r7, #2
  while((hrtc->Instance->ISR & RTC_ISR_RSF) == (uint32_t)RESET)
 8000cb6:	6823      	ldr	r3, [r4, #0]
 8000cb8:	68db      	ldr	r3, [r3, #12]
 8000cba:	422b      	tst	r3, r5
 8000cbc:	d001      	beq.n	8000cc2 <HAL_RTC_WaitForSynchro+0x26>
    {       
      return HAL_TIMEOUT;
    } 
  }

  return HAL_OK;
 8000cbe:	2000      	movs	r0, #0
}
 8000cc0:	bdf8      	pop	{r3, r4, r5, r6, r7, pc}
    if((HAL_GetTick()-tickstart) > RTC_TIMEOUT_VALUE)
 8000cc2:	f7ff faf3 	bl	80002ac <HAL_GetTick>
 8000cc6:	1b80      	subs	r0, r0, r6
 8000cc8:	42b8      	cmp	r0, r7
 8000cca:	d9f4      	bls.n	8000cb6 <HAL_RTC_WaitForSynchro+0x1a>
      return HAL_TIMEOUT;
 8000ccc:	2003      	movs	r0, #3
 8000cce:	e7f7      	b.n	8000cc0 <HAL_RTC_WaitForSynchro+0x24>

08000cd0 <RTC_EnterInitMode>:
  *         __HAL_RTC_WRITEPROTECTION_DISABLE() before calling this function.
  * @param  hrtc RTC handle
  * @retval HAL status
  */
HAL_StatusTypeDef RTC_EnterInitMode(RTC_HandleTypeDef* hrtc)
{
 8000cd0:	b5f8      	push	{r3, r4, r5, r6, r7, lr}
  uint32_t tickstart = 0U;
  
  /* Check if the Initialization mode is set */
  if((hrtc->Instance->ISR & RTC_ISR_INITF) == (uint32_t)RESET)
 8000cd2:	2440      	movs	r4, #64	; 0x40
 8000cd4:	6803      	ldr	r3, [r0, #0]
{
 8000cd6:	0005      	movs	r5, r0
  if((hrtc->Instance->ISR & RTC_ISR_INITF) == (uint32_t)RESET)
 8000cd8:	68da      	ldr	r2, [r3, #12]
 8000cda:	4222      	tst	r2, r4
 8000cdc:	d001      	beq.n	8000ce2 <RTC_EnterInitMode+0x12>
        return HAL_TIMEOUT;
      } 
    }
  }
  
  return HAL_OK;  
 8000cde:	2000      	movs	r0, #0
}
 8000ce0:	bdf8      	pop	{r3, r4, r5, r6, r7, pc}
    hrtc->Instance->ISR = (uint32_t)RTC_INIT_MASK;
 8000ce2:	2201      	movs	r2, #1
 8000ce4:	4252      	negs	r2, r2
 8000ce6:	60da      	str	r2, [r3, #12]
    tickstart = HAL_GetTick();
 8000ce8:	f7ff fae0 	bl	80002ac <HAL_GetTick>
      if((HAL_GetTick()-tickstart) > RTC_TIMEOUT_VALUE)
 8000cec:	27fa      	movs	r7, #250	; 0xfa
    tickstart = HAL_GetTick();
 8000cee:	0006      	movs	r6, r0
      if((HAL_GetTick()-tickstart) > RTC_TIMEOUT_VALUE)
 8000cf0:	00bf      	lsls	r7, r7, #2
    while((hrtc->Instance->ISR & RTC_ISR_INITF) == (uint32_t)RESET)
 8000cf2:	682b      	ldr	r3, [r5, #0]
 8000cf4:	68db      	ldr	r3, [r3, #12]
 8000cf6:	4223      	tst	r3, r4
 8000cf8:	d1f1      	bne.n	8000cde <RTC_EnterInitMode+0xe>
      if((HAL_GetTick()-tickstart) > RTC_TIMEOUT_VALUE)
 8000cfa:	f7ff fad7 	bl	80002ac <HAL_GetTick>
 8000cfe:	1b80      	subs	r0, r0, r6
 8000d00:	42b8      	cmp	r0, r7
 8000d02:	d9f6      	bls.n	8000cf2 <RTC_EnterInitMode+0x22>
        return HAL_TIMEOUT;
 8000d04:	2003      	movs	r0, #3
 8000d06:	e7eb      	b.n	8000ce0 <RTC_EnterInitMode+0x10>

08000d08 <HAL_RTC_Init>:
{
 8000d08:	b570      	push	{r4, r5, r6, lr}
 8000d0a:	0004      	movs	r4, r0
     return HAL_ERROR;
 8000d0c:	2501      	movs	r5, #1
  if(hrtc == NULL)
 8000d0e:	2800      	cmp	r0, #0
 8000d10:	d018      	beq.n	8000d44 <HAL_RTC_Init+0x3c>
  if(hrtc->State == HAL_RTC_STATE_RESET)
 8000d12:	7f43      	ldrb	r3, [r0, #29]
 8000d14:	b2db      	uxtb	r3, r3
 8000d16:	2b00      	cmp	r3, #0
 8000d18:	d102      	bne.n	8000d20 <HAL_RTC_Init+0x18>
    hrtc->Lock = HAL_UNLOCKED;
 8000d1a:	7703      	strb	r3, [r0, #28]
    HAL_RTC_MspInit(hrtc);
 8000d1c:	f002 f8ae 	bl	8002e7c <HAL_RTC_MspInit>
  hrtc->State = HAL_RTC_STATE_BUSY;  
 8000d20:	2302      	movs	r3, #2
  __HAL_RTC_WRITEPROTECTION_DISABLE(hrtc);
 8000d22:	22ca      	movs	r2, #202	; 0xca
  hrtc->State = HAL_RTC_STATE_BUSY;  
 8000d24:	7763      	strb	r3, [r4, #29]
  __HAL_RTC_WRITEPROTECTION_DISABLE(hrtc);
 8000d26:	6823      	ldr	r3, [r4, #0]
  if(RTC_EnterInitMode(hrtc) != HAL_OK)
 8000d28:	0020      	movs	r0, r4
  __HAL_RTC_WRITEPROTECTION_DISABLE(hrtc);
 8000d2a:	625a      	str	r2, [r3, #36]	; 0x24
 8000d2c:	3a77      	subs	r2, #119	; 0x77
 8000d2e:	625a      	str	r2, [r3, #36]	; 0x24
  if(RTC_EnterInitMode(hrtc) != HAL_OK)
 8000d30:	f7ff ffce 	bl	8000cd0 <RTC_EnterInitMode>
 8000d34:	6823      	ldr	r3, [r4, #0]
 8000d36:	1e05      	subs	r5, r0, #0
 8000d38:	d006      	beq.n	8000d48 <HAL_RTC_Init+0x40>
        __HAL_RTC_WRITEPROTECTION_ENABLE(hrtc);
 8000d3a:	22ff      	movs	r2, #255	; 0xff
 8000d3c:	625a      	str	r2, [r3, #36]	; 0x24
        hrtc->State = HAL_RTC_STATE_ERROR;
 8000d3e:	2304      	movs	r3, #4
        return HAL_ERROR;
 8000d40:	2501      	movs	r5, #1
        hrtc->State = HAL_RTC_STATE_ERROR;
 8000d42:	7763      	strb	r3, [r4, #29]
}
 8000d44:	0028      	movs	r0, r5
 8000d46:	bd70      	pop	{r4, r5, r6, pc}
    hrtc->Instance->CR &= ((uint32_t)~(RTC_CR_FMT | RTC_CR_OSEL | RTC_CR_POL));
 8000d48:	689a      	ldr	r2, [r3, #8]
 8000d4a:	4917      	ldr	r1, [pc, #92]	; (8000da8 <HAL_RTC_Init+0xa0>)
    hrtc->Instance->CR |= (uint32_t)(hrtc->Init.HourFormat | hrtc->Init.OutPut | hrtc->Init.OutPutPolarity);
 8000d4c:	6920      	ldr	r0, [r4, #16]
    hrtc->Instance->CR &= ((uint32_t)~(RTC_CR_FMT | RTC_CR_OSEL | RTC_CR_POL));
 8000d4e:	400a      	ands	r2, r1
 8000d50:	609a      	str	r2, [r3, #8]
    hrtc->Instance->CR |= (uint32_t)(hrtc->Init.HourFormat | hrtc->Init.OutPut | hrtc->Init.OutPutPolarity);
 8000d52:	6862      	ldr	r2, [r4, #4]
 8000d54:	6899      	ldr	r1, [r3, #8]
 8000d56:	4302      	orrs	r2, r0
 8000d58:	6960      	ldr	r0, [r4, #20]
 8000d5a:	4302      	orrs	r2, r0
 8000d5c:	430a      	orrs	r2, r1
 8000d5e:	609a      	str	r2, [r3, #8]
    hrtc->Instance->PRER = (uint32_t)(hrtc->Init.SynchPrediv);
 8000d60:	68e2      	ldr	r2, [r4, #12]
 8000d62:	611a      	str	r2, [r3, #16]
    hrtc->Instance->PRER |= (uint32_t)(hrtc->Init.AsynchPrediv << 16U);
 8000d64:	68a2      	ldr	r2, [r4, #8]
 8000d66:	6919      	ldr	r1, [r3, #16]
 8000d68:	0412      	lsls	r2, r2, #16
 8000d6a:	430a      	orrs	r2, r1
    hrtc->Instance->ISR &= (uint32_t)~RTC_ISR_INIT; 
 8000d6c:	2180      	movs	r1, #128	; 0x80
    hrtc->Instance->PRER |= (uint32_t)(hrtc->Init.AsynchPrediv << 16U);
 8000d6e:	611a      	str	r2, [r3, #16]
    hrtc->Instance->ISR &= (uint32_t)~RTC_ISR_INIT; 
 8000d70:	68da      	ldr	r2, [r3, #12]
 8000d72:	438a      	bics	r2, r1
 8000d74:	60da      	str	r2, [r3, #12]
    if((hrtc->Instance->CR & RTC_CR_BYPSHAD) == RESET)
 8000d76:	689b      	ldr	r3, [r3, #8]
 8000d78:	069b      	lsls	r3, r3, #26
 8000d7a:	d406      	bmi.n	8000d8a <HAL_RTC_Init+0x82>
      if(HAL_RTC_WaitForSynchro(hrtc) != HAL_OK)
 8000d7c:	0020      	movs	r0, r4
 8000d7e:	f7ff ff8d 	bl	8000c9c <HAL_RTC_WaitForSynchro>
 8000d82:	2800      	cmp	r0, #0
 8000d84:	d001      	beq.n	8000d8a <HAL_RTC_Init+0x82>
        __HAL_RTC_WRITEPROTECTION_ENABLE(hrtc);
 8000d86:	6823      	ldr	r3, [r4, #0]
 8000d88:	e7d7      	b.n	8000d3a <HAL_RTC_Init+0x32>
    hrtc->Instance->TAFCR &= (uint32_t)~RTC_TAFCR_ALARMOUTTYPE;
 8000d8a:	6823      	ldr	r3, [r4, #0]
 8000d8c:	4907      	ldr	r1, [pc, #28]	; (8000dac <HAL_RTC_Init+0xa4>)
 8000d8e:	6c1a      	ldr	r2, [r3, #64]	; 0x40
 8000d90:	400a      	ands	r2, r1
 8000d92:	641a      	str	r2, [r3, #64]	; 0x40
    hrtc->Instance->TAFCR |= (uint32_t)(hrtc->Init.OutPutType); 
 8000d94:	6c1a      	ldr	r2, [r3, #64]	; 0x40
 8000d96:	69a1      	ldr	r1, [r4, #24]
 8000d98:	430a      	orrs	r2, r1
 8000d9a:	641a      	str	r2, [r3, #64]	; 0x40
    __HAL_RTC_WRITEPROTECTION_ENABLE(hrtc); 
 8000d9c:	22ff      	movs	r2, #255	; 0xff
 8000d9e:	625a      	str	r2, [r3, #36]	; 0x24
    hrtc->State = HAL_RTC_STATE_READY;
 8000da0:	2301      	movs	r3, #1
 8000da2:	7763      	strb	r3, [r4, #29]
    return HAL_OK;
 8000da4:	e7ce      	b.n	8000d44 <HAL_RTC_Init+0x3c>
 8000da6:	46c0      	nop			; (mov r8, r8)
 8000da8:	ff8fffbf 	.word	0xff8fffbf
 8000dac:	fffbffff 	.word	0xfffbffff

08000db0 <RTC_ByteToBcd2>:
  * @param  Value Byte to be converted
  * @retval Converted byte
  */
uint8_t RTC_ByteToBcd2(uint8_t Value)
{
  uint32_t bcdhigh = 0U;
 8000db0:	2300      	movs	r3, #0
  
  while(Value >= 10U)
 8000db2:	2809      	cmp	r0, #9
 8000db4:	d803      	bhi.n	8000dbe <RTC_ByteToBcd2+0xe>
  {
    bcdhigh++;
    Value -= 10U;
  }
  
  return  ((uint8_t)(bcdhigh << 4U) | Value);
 8000db6:	011b      	lsls	r3, r3, #4
 8000db8:	4318      	orrs	r0, r3
 8000dba:	b2c0      	uxtb	r0, r0
}
 8000dbc:	4770      	bx	lr
    Value -= 10U;
 8000dbe:	380a      	subs	r0, #10
    bcdhigh++;
 8000dc0:	3301      	adds	r3, #1
    Value -= 10U;
 8000dc2:	b2c0      	uxtb	r0, r0
 8000dc4:	e7f5      	b.n	8000db2 <RTC_ByteToBcd2+0x2>
	...

08000dc8 <HAL_RTC_SetTime>:
{
 8000dc8:	2302      	movs	r3, #2
 8000dca:	b5f7      	push	{r0, r1, r2, r4, r5, r6, r7, lr}
 8000dcc:	000d      	movs	r5, r1
  __HAL_LOCK(hrtc);
 8000dce:	7f01      	ldrb	r1, [r0, #28]
{
 8000dd0:	0004      	movs	r4, r0
  __HAL_LOCK(hrtc);
 8000dd2:	001f      	movs	r7, r3
 8000dd4:	2901      	cmp	r1, #1
 8000dd6:	d032      	beq.n	8000e3e <HAL_RTC_SetTime+0x76>
 8000dd8:	2101      	movs	r1, #1
  hrtc->State = HAL_RTC_STATE_BUSY;
 8000dda:	7743      	strb	r3, [r0, #29]
 8000ddc:	6803      	ldr	r3, [r0, #0]
  __HAL_LOCK(hrtc);
 8000dde:	7701      	strb	r1, [r0, #28]
    if((hrtc->Instance->CR & RTC_CR_FMT) != (uint32_t)RESET)
 8000de0:	689b      	ldr	r3, [r3, #8]
 8000de2:	313f      	adds	r1, #63	; 0x3f
 8000de4:	7828      	ldrb	r0, [r5, #0]
 8000de6:	786e      	ldrb	r6, [r5, #1]
 8000de8:	78af      	ldrb	r7, [r5, #2]
 8000dea:	400b      	ands	r3, r1
  if(Format == RTC_FORMAT_BIN)
 8000dec:	2a00      	cmp	r2, #0
 8000dee:	d128      	bne.n	8000e42 <HAL_RTC_SetTime+0x7a>
    if((hrtc->Instance->CR & RTC_CR_FMT) != (uint32_t)RESET)
 8000df0:	2b00      	cmp	r3, #0
 8000df2:	d100      	bne.n	8000df6 <HAL_RTC_SetTime+0x2e>
      sTime->TimeFormat = 0x00U;
 8000df4:	70eb      	strb	r3, [r5, #3]
    tmpreg = (uint32_t)(((uint32_t)RTC_ByteToBcd2(sTime->Hours) << 16U) | \
 8000df6:	f7ff ffdb 	bl	8000db0 <RTC_ByteToBcd2>
 8000dfa:	9001      	str	r0, [sp, #4]
                        ((uint32_t)RTC_ByteToBcd2(sTime->Minutes) << 8U) | \
 8000dfc:	0030      	movs	r0, r6
 8000dfe:	f7ff ffd7 	bl	8000db0 <RTC_ByteToBcd2>
 8000e02:	0006      	movs	r6, r0
                        ((uint32_t)RTC_ByteToBcd2(sTime->Seconds)) | \
 8000e04:	0038      	movs	r0, r7
 8000e06:	f7ff ffd3 	bl	8000db0 <RTC_ByteToBcd2>
                        (((uint32_t)sTime->TimeFormat) << 16U));  
 8000e0a:	78ef      	ldrb	r7, [r5, #3]
    tmpreg = (uint32_t)(((uint32_t)RTC_ByteToBcd2(sTime->Hours) << 16U) | \
 8000e0c:	9b01      	ldr	r3, [sp, #4]
                        (((uint32_t)sTime->TimeFormat) << 16U));  
 8000e0e:	043f      	lsls	r7, r7, #16
    tmpreg = (uint32_t)(((uint32_t)RTC_ByteToBcd2(sTime->Hours) << 16U) | \
 8000e10:	4307      	orrs	r7, r0
 8000e12:	0418      	lsls	r0, r3, #16
 8000e14:	4307      	orrs	r7, r0
                        ((uint32_t)RTC_ByteToBcd2(sTime->Minutes) << 8U) | \
 8000e16:	0236      	lsls	r6, r6, #8
  __HAL_RTC_WRITEPROTECTION_DISABLE(hrtc);
 8000e18:	22ca      	movs	r2, #202	; 0xca
 8000e1a:	6823      	ldr	r3, [r4, #0]
  if(RTC_EnterInitMode(hrtc) != HAL_OK)
 8000e1c:	0020      	movs	r0, r4
  __HAL_RTC_WRITEPROTECTION_DISABLE(hrtc);
 8000e1e:	625a      	str	r2, [r3, #36]	; 0x24
 8000e20:	3a77      	subs	r2, #119	; 0x77
 8000e22:	625a      	str	r2, [r3, #36]	; 0x24
  if(RTC_EnterInitMode(hrtc) != HAL_OK)
 8000e24:	f7ff ff54 	bl	8000cd0 <RTC_EnterInitMode>
    tmpreg = (((uint32_t)(sTime->Hours) << 16U) | \
 8000e28:	433e      	orrs	r6, r7
 8000e2a:	6823      	ldr	r3, [r4, #0]
  if(RTC_EnterInitMode(hrtc) != HAL_OK)
 8000e2c:	1e07      	subs	r7, r0, #0
 8000e2e:	d012      	beq.n	8000e56 <HAL_RTC_SetTime+0x8e>
    __HAL_RTC_WRITEPROTECTION_ENABLE(hrtc); 
 8000e30:	22ff      	movs	r2, #255	; 0xff
 8000e32:	625a      	str	r2, [r3, #36]	; 0x24
    hrtc->State = HAL_RTC_STATE_ERROR;
 8000e34:	2304      	movs	r3, #4
 8000e36:	7763      	strb	r3, [r4, #29]
    __HAL_UNLOCK(hrtc);
 8000e38:	2300      	movs	r3, #0
 8000e3a:	7723      	strb	r3, [r4, #28]
        return HAL_ERROR;
 8000e3c:	2701      	movs	r7, #1
}
 8000e3e:	0038      	movs	r0, r7
 8000e40:	bdfe      	pop	{r1, r2, r3, r4, r5, r6, r7, pc}
    if((hrtc->Instance->CR & RTC_CR_FMT) != (uint32_t)RESET)
 8000e42:	2b00      	cmp	r3, #0
 8000e44:	d100      	bne.n	8000e48 <HAL_RTC_SetTime+0x80>
      sTime->TimeFormat = 0x00U;
 8000e46:	70eb      	strb	r3, [r5, #3]
    tmpreg = (((uint32_t)(sTime->Hours) << 16U) | \
 8000e48:	0400      	lsls	r0, r0, #16
              ((uint32_t)(sTime->Minutes) << 8U) | \
 8000e4a:	0236      	lsls	r6, r6, #8
    tmpreg = (((uint32_t)(sTime->Hours) << 16U) | \
 8000e4c:	4306      	orrs	r6, r0
              ((uint32_t)(sTime->Minutes) << 8U) | \
 8000e4e:	4337      	orrs	r7, r6
              ((uint32_t)(sTime->TimeFormat) << 16U));   
 8000e50:	78ee      	ldrb	r6, [r5, #3]
 8000e52:	0436      	lsls	r6, r6, #16
 8000e54:	e7e0      	b.n	8000e18 <HAL_RTC_SetTime+0x50>
    hrtc->Instance->TR = (uint32_t)(tmpreg & RTC_TR_RESERVED_MASK);
 8000e56:	4814      	ldr	r0, [pc, #80]	; (8000ea8 <HAL_RTC_SetTime+0xe0>)
    hrtc->Instance->CR &= ((uint32_t)~RTC_CR_BKP);
 8000e58:	4914      	ldr	r1, [pc, #80]	; (8000eac <HAL_RTC_SetTime+0xe4>)
    hrtc->Instance->TR = (uint32_t)(tmpreg & RTC_TR_RESERVED_MASK);
 8000e5a:	4006      	ands	r6, r0
 8000e5c:	601e      	str	r6, [r3, #0]
    hrtc->Instance->CR &= ((uint32_t)~RTC_CR_BKP);
 8000e5e:	689a      	ldr	r2, [r3, #8]
    hrtc->Instance->CR |= (uint32_t)(sTime->DayLightSaving | sTime->StoreOperation);
 8000e60:	6928      	ldr	r0, [r5, #16]
    hrtc->Instance->CR &= ((uint32_t)~RTC_CR_BKP);
 8000e62:	400a      	ands	r2, r1
 8000e64:	609a      	str	r2, [r3, #8]
    hrtc->Instance->CR |= (uint32_t)(sTime->DayLightSaving | sTime->StoreOperation);
 8000e66:	68ea      	ldr	r2, [r5, #12]
 8000e68:	6899      	ldr	r1, [r3, #8]
 8000e6a:	4302      	orrs	r2, r0
 8000e6c:	430a      	orrs	r2, r1
    hrtc->Instance->ISR &= ((uint32_t)~RTC_ISR_INIT);
 8000e6e:	2180      	movs	r1, #128	; 0x80
    hrtc->Instance->CR |= (uint32_t)(sTime->DayLightSaving | sTime->StoreOperation);
 8000e70:	609a      	str	r2, [r3, #8]
    hrtc->Instance->ISR &= ((uint32_t)~RTC_ISR_INIT);
 8000e72:	68da      	ldr	r2, [r3, #12]
 8000e74:	438a      	bics	r2, r1
 8000e76:	60da      	str	r2, [r3, #12]
    if((hrtc->Instance->CR & RTC_CR_BYPSHAD) == RESET)
 8000e78:	689b      	ldr	r3, [r3, #8]
 8000e7a:	069b      	lsls	r3, r3, #26
 8000e7c:	d40b      	bmi.n	8000e96 <HAL_RTC_SetTime+0xce>
      if(HAL_RTC_WaitForSynchro(hrtc) != HAL_OK)
 8000e7e:	0020      	movs	r0, r4
 8000e80:	f7ff ff0c 	bl	8000c9c <HAL_RTC_WaitForSynchro>
 8000e84:	2800      	cmp	r0, #0
 8000e86:	d006      	beq.n	8000e96 <HAL_RTC_SetTime+0xce>
        __HAL_RTC_WRITEPROTECTION_ENABLE(hrtc);  
 8000e88:	22ff      	movs	r2, #255	; 0xff
 8000e8a:	6823      	ldr	r3, [r4, #0]
 8000e8c:	625a      	str	r2, [r3, #36]	; 0x24
        hrtc->State = HAL_RTC_STATE_ERROR;
 8000e8e:	2304      	movs	r3, #4
        __HAL_UNLOCK(hrtc);
 8000e90:	7727      	strb	r7, [r4, #28]
        hrtc->State = HAL_RTC_STATE_ERROR;
 8000e92:	7763      	strb	r3, [r4, #29]
 8000e94:	e7d2      	b.n	8000e3c <HAL_RTC_SetTime+0x74>
    __HAL_RTC_WRITEPROTECTION_ENABLE(hrtc);
 8000e96:	22ff      	movs	r2, #255	; 0xff
 8000e98:	6823      	ldr	r3, [r4, #0]
 8000e9a:	625a      	str	r2, [r3, #36]	; 0x24
   hrtc->State = HAL_RTC_STATE_READY;
 8000e9c:	2301      	movs	r3, #1
 8000e9e:	7763      	strb	r3, [r4, #29]
   __HAL_UNLOCK(hrtc); 
 8000ea0:	2300      	movs	r3, #0
 8000ea2:	7723      	strb	r3, [r4, #28]
   return HAL_OK;
 8000ea4:	e7cb      	b.n	8000e3e <HAL_RTC_SetTime+0x76>
 8000ea6:	46c0      	nop			; (mov r8, r8)
 8000ea8:	007f7f7f 	.word	0x007f7f7f
 8000eac:	fffbffff 	.word	0xfffbffff

08000eb0 <HAL_RTC_SetDate>:
{
 8000eb0:	2302      	movs	r3, #2
 8000eb2:	b5f7      	push	{r0, r1, r2, r4, r5, r6, r7, lr}
 8000eb4:	000d      	movs	r5, r1
 __HAL_LOCK(hrtc);
 8000eb6:	7f01      	ldrb	r1, [r0, #28]
{
 8000eb8:	0004      	movs	r4, r0
 __HAL_LOCK(hrtc);
 8000eba:	001e      	movs	r6, r3
 8000ebc:	2901      	cmp	r1, #1
 8000ebe:	d031      	beq.n	8000f24 <HAL_RTC_SetDate+0x74>
 8000ec0:	2101      	movs	r1, #1
  hrtc->State = HAL_RTC_STATE_BUSY; 
 8000ec2:	7743      	strb	r3, [r0, #29]
 __HAL_LOCK(hrtc);
 8000ec4:	7701      	strb	r1, [r0, #28]
 8000ec6:	786b      	ldrb	r3, [r5, #1]
 8000ec8:	78e8      	ldrb	r0, [r5, #3]
 8000eca:	78af      	ldrb	r7, [r5, #2]
 8000ecc:	782e      	ldrb	r6, [r5, #0]
  if((Format == RTC_FORMAT_BIN) && ((sDate->Month & 0x10U) == 0x10U))
 8000ece:	2a00      	cmp	r2, #0
 8000ed0:	d148      	bne.n	8000f64 <HAL_RTC_SetDate+0xb4>
 8000ed2:	3210      	adds	r2, #16
 8000ed4:	4213      	tst	r3, r2
 8000ed6:	d002      	beq.n	8000ede <HAL_RTC_SetDate+0x2e>
    sDate->Month = (uint8_t)((sDate->Month & (uint8_t)~(0x10U)) + (uint8_t)0x0AU);
 8000ed8:	4393      	bics	r3, r2
 8000eda:	330a      	adds	r3, #10
 8000edc:	706b      	strb	r3, [r5, #1]
   datetmpreg = (((uint32_t)RTC_ByteToBcd2(sDate->Year) << 16U) | \
 8000ede:	f7ff ff67 	bl	8000db0 <RTC_ByteToBcd2>
 8000ee2:	9001      	str	r0, [sp, #4]
                 ((uint32_t)RTC_ByteToBcd2(sDate->Month) << 8U) | \
 8000ee4:	7868      	ldrb	r0, [r5, #1]
 8000ee6:	f7ff ff63 	bl	8000db0 <RTC_ByteToBcd2>
 8000eea:	0005      	movs	r5, r0
                 ((uint32_t)RTC_ByteToBcd2(sDate->Date)) | \
 8000eec:	0038      	movs	r0, r7
 8000eee:	f7ff ff5f 	bl	8000db0 <RTC_ByteToBcd2>
   datetmpreg = (((uint32_t)RTC_ByteToBcd2(sDate->Year) << 16U) | \
 8000ef2:	9b01      	ldr	r3, [sp, #4]
                 ((uint32_t)sDate->WeekDay << 13U));   
 8000ef4:	0376      	lsls	r6, r6, #13
   datetmpreg = (((uint32_t)RTC_ByteToBcd2(sDate->Year) << 16U) | \
 8000ef6:	4330      	orrs	r0, r6
 8000ef8:	041e      	lsls	r6, r3, #16
 8000efa:	4306      	orrs	r6, r0
                 ((uint32_t)RTC_ByteToBcd2(sDate->Month) << 8U) | \
 8000efc:	022d      	lsls	r5, r5, #8
   datetmpreg = (((uint32_t)RTC_ByteToBcd2(sDate->Year) << 16U) | \
 8000efe:	4335      	orrs	r5, r6
  __HAL_RTC_WRITEPROTECTION_DISABLE(hrtc);
 8000f00:	22ca      	movs	r2, #202	; 0xca
 8000f02:	6823      	ldr	r3, [r4, #0]
  if(RTC_EnterInitMode(hrtc) != HAL_OK)
 8000f04:	0020      	movs	r0, r4
  __HAL_RTC_WRITEPROTECTION_DISABLE(hrtc);
 8000f06:	625a      	str	r2, [r3, #36]	; 0x24
 8000f08:	3a77      	subs	r2, #119	; 0x77
 8000f0a:	625a      	str	r2, [r3, #36]	; 0x24
  if(RTC_EnterInitMode(hrtc) != HAL_OK)
 8000f0c:	f7ff fee0 	bl	8000cd0 <RTC_EnterInitMode>
 8000f10:	6823      	ldr	r3, [r4, #0]
 8000f12:	1e06      	subs	r6, r0, #0
 8000f14:	d008      	beq.n	8000f28 <HAL_RTC_SetDate+0x78>
    __HAL_RTC_WRITEPROTECTION_ENABLE(hrtc); 
 8000f16:	22ff      	movs	r2, #255	; 0xff
 8000f18:	625a      	str	r2, [r3, #36]	; 0x24
    hrtc->State = HAL_RTC_STATE_ERROR;
 8000f1a:	2304      	movs	r3, #4
 8000f1c:	7763      	strb	r3, [r4, #29]
    __HAL_UNLOCK(hrtc);
 8000f1e:	2300      	movs	r3, #0
 8000f20:	7723      	strb	r3, [r4, #28]
        return HAL_ERROR;
 8000f22:	2601      	movs	r6, #1
}
 8000f24:	0030      	movs	r0, r6
 8000f26:	bdfe      	pop	{r1, r2, r3, r4, r5, r6, r7, pc}
    hrtc->Instance->ISR &= ((uint32_t)~RTC_ISR_INIT);
 8000f28:	2180      	movs	r1, #128	; 0x80
    hrtc->Instance->DR = (uint32_t)(datetmpreg & RTC_DR_RESERVED_MASK);
 8000f2a:	4f12      	ldr	r7, [pc, #72]	; (8000f74 <HAL_RTC_SetDate+0xc4>)
 8000f2c:	403d      	ands	r5, r7
 8000f2e:	605d      	str	r5, [r3, #4]
    hrtc->Instance->ISR &= ((uint32_t)~RTC_ISR_INIT);
 8000f30:	68da      	ldr	r2, [r3, #12]
 8000f32:	438a      	bics	r2, r1
 8000f34:	60da      	str	r2, [r3, #12]
    if((hrtc->Instance->CR & RTC_CR_BYPSHAD) == RESET)
 8000f36:	689b      	ldr	r3, [r3, #8]
 8000f38:	069b      	lsls	r3, r3, #26
 8000f3a:	d40b      	bmi.n	8000f54 <HAL_RTC_SetDate+0xa4>
      if(HAL_RTC_WaitForSynchro(hrtc) != HAL_OK)
 8000f3c:	0020      	movs	r0, r4
 8000f3e:	f7ff fead 	bl	8000c9c <HAL_RTC_WaitForSynchro>
 8000f42:	2800      	cmp	r0, #0
 8000f44:	d006      	beq.n	8000f54 <HAL_RTC_SetDate+0xa4>
        __HAL_RTC_WRITEPROTECTION_ENABLE(hrtc);  
 8000f46:	22ff      	movs	r2, #255	; 0xff
 8000f48:	6823      	ldr	r3, [r4, #0]
 8000f4a:	625a      	str	r2, [r3, #36]	; 0x24
        hrtc->State = HAL_RTC_STATE_ERROR;
 8000f4c:	2304      	movs	r3, #4
        __HAL_UNLOCK(hrtc);
 8000f4e:	7726      	strb	r6, [r4, #28]
        hrtc->State = HAL_RTC_STATE_ERROR;
 8000f50:	7763      	strb	r3, [r4, #29]
 8000f52:	e7e6      	b.n	8000f22 <HAL_RTC_SetDate+0x72>
    __HAL_RTC_WRITEPROTECTION_ENABLE(hrtc);  
 8000f54:	22ff      	movs	r2, #255	; 0xff
 8000f56:	6823      	ldr	r3, [r4, #0]
 8000f58:	625a      	str	r2, [r3, #36]	; 0x24
    hrtc->State = HAL_RTC_STATE_READY ;
 8000f5a:	2301      	movs	r3, #1
 8000f5c:	7763      	strb	r3, [r4, #29]
    __HAL_UNLOCK(hrtc);
 8000f5e:	2300      	movs	r3, #0
 8000f60:	7723      	strb	r3, [r4, #28]
    return HAL_OK;    
 8000f62:	e7df      	b.n	8000f24 <HAL_RTC_SetDate+0x74>
    datetmpreg = ((((uint32_t)sDate->Year) << 16U) | \
 8000f64:	0400      	lsls	r0, r0, #16
                  (((uint32_t)sDate->Month) << 8U) | \
 8000f66:	021b      	lsls	r3, r3, #8
    datetmpreg = ((((uint32_t)sDate->Year) << 16U) | \
 8000f68:	4303      	orrs	r3, r0
                  (((uint32_t)sDate->Month) << 8U) | \
 8000f6a:	431f      	orrs	r7, r3
                  (((uint32_t)sDate->WeekDay) << 13U));  
 8000f6c:	0375      	lsls	r5, r6, #13
    datetmpreg = ((((uint32_t)sDate->Year) << 16U) | \
 8000f6e:	433d      	orrs	r5, r7
 8000f70:	e7c6      	b.n	8000f00 <HAL_RTC_SetDate+0x50>
 8000f72:	46c0      	nop			; (mov r8, r8)
 8000f74:	00ffff3f 	.word	0x00ffff3f

08000f78 <HAL_RTC_SetAlarm_IT>:
{
 8000f78:	2302      	movs	r3, #2
 8000f7a:	b5f0      	push	{r4, r5, r6, r7, lr}
 8000f7c:	000c      	movs	r4, r1
  __HAL_LOCK(hrtc);
 8000f7e:	7f01      	ldrb	r1, [r0, #28]
{
 8000f80:	0005      	movs	r5, r0
 8000f82:	b085      	sub	sp, #20
  __HAL_LOCK(hrtc);
 8000f84:	0018      	movs	r0, r3
 8000f86:	2901      	cmp	r1, #1
 8000f88:	d100      	bne.n	8000f8c <HAL_RTC_SetAlarm_IT+0x14>
 8000f8a:	e082      	b.n	8001092 <HAL_RTC_SetAlarm_IT+0x11a>
 8000f8c:	2101      	movs	r1, #1
  hrtc->State = HAL_RTC_STATE_BUSY;
 8000f8e:	776b      	strb	r3, [r5, #29]
 8000f90:	682b      	ldr	r3, [r5, #0]
  __HAL_LOCK(hrtc);
 8000f92:	7729      	strb	r1, [r5, #28]
    if((hrtc->Instance->CR & RTC_CR_FMT) != (uint32_t)RESET)
 8000f94:	689b      	ldr	r3, [r3, #8]
 8000f96:	313f      	adds	r1, #63	; 0x3f
 8000f98:	7820      	ldrb	r0, [r4, #0]
 8000f9a:	7866      	ldrb	r6, [r4, #1]
 8000f9c:	78a7      	ldrb	r7, [r4, #2]
 8000f9e:	400b      	ands	r3, r1
  if(Format == RTC_FORMAT_BIN)
 8000fa0:	2a00      	cmp	r2, #0
 8000fa2:	d157      	bne.n	8001054 <HAL_RTC_SetAlarm_IT+0xdc>
    if((hrtc->Instance->CR & RTC_CR_FMT) != (uint32_t)RESET)
 8000fa4:	2b00      	cmp	r3, #0
 8000fa6:	d100      	bne.n	8000faa <HAL_RTC_SetAlarm_IT+0x32>
      sAlarm->AlarmTime.TimeFormat = 0x00U;
 8000fa8:	70e3      	strb	r3, [r4, #3]
    tmpreg = (((uint32_t)RTC_ByteToBcd2(sAlarm->AlarmTime.Hours) << 16U) | \
 8000faa:	f7ff ff01 	bl	8000db0 <RTC_ByteToBcd2>
 8000fae:	9001      	str	r0, [sp, #4]
              ((uint32_t)RTC_ByteToBcd2(sAlarm->AlarmTime.Minutes) << 8U) | \
 8000fb0:	0030      	movs	r0, r6
 8000fb2:	f7ff fefd 	bl	8000db0 <RTC_ByteToBcd2>
 8000fb6:	0006      	movs	r6, r0
              ((uint32_t)RTC_ByteToBcd2(sAlarm->AlarmTime.Seconds)) | \
 8000fb8:	0038      	movs	r0, r7
 8000fba:	f7ff fef9 	bl	8000db0 <RTC_ByteToBcd2>
 8000fbe:	0007      	movs	r7, r0
              ((uint32_t)RTC_ByteToBcd2(sAlarm->AlarmDateWeekDay) << 24U) | \
 8000fc0:	1c63      	adds	r3, r4, #1
 8000fc2:	7fd8      	ldrb	r0, [r3, #31]
 8000fc4:	f7ff fef4 	bl	8000db0 <RTC_ByteToBcd2>
    tmpreg = (((uint32_t)RTC_ByteToBcd2(sAlarm->AlarmTime.Hours) << 16U) | \
 8000fc8:	6962      	ldr	r2, [r4, #20]
 8000fca:	69e3      	ldr	r3, [r4, #28]
              ((uint32_t)RTC_ByteToBcd2(sAlarm->AlarmTime.Minutes) << 8U) | \
 8000fcc:	0236      	lsls	r6, r6, #8
    tmpreg = (((uint32_t)RTC_ByteToBcd2(sAlarm->AlarmTime.Hours) << 16U) | \
 8000fce:	4313      	orrs	r3, r2
              ((uint32_t)(sAlarm->AlarmTime.TimeFormat) << 16U) | \
 8000fd0:	78e2      	ldrb	r2, [r4, #3]
 8000fd2:	0412      	lsls	r2, r2, #16
    tmpreg = (((uint32_t)RTC_ByteToBcd2(sAlarm->AlarmTime.Hours) << 16U) | \
 8000fd4:	4313      	orrs	r3, r2
 8000fd6:	431f      	orrs	r7, r3
 8000fd8:	9b01      	ldr	r3, [sp, #4]
 8000fda:	041b      	lsls	r3, r3, #16
 8000fdc:	431f      	orrs	r7, r3
 8000fde:	433e      	orrs	r6, r7
  __HAL_RTC_WRITEPROTECTION_DISABLE(hrtc);
 8000fe0:	22ca      	movs	r2, #202	; 0xca
  subsecondtmpreg = (uint32_t)((uint32_t)(sAlarm->AlarmTime.SubSeconds) | (uint32_t)(sAlarm->AlarmSubSecondMask));
 8000fe2:	6863      	ldr	r3, [r4, #4]
  __HAL_RTC_ALARMA_DISABLE(hrtc);
 8000fe4:	492c      	ldr	r1, [pc, #176]	; (8001098 <HAL_RTC_SetAlarm_IT+0x120>)
  subsecondtmpreg = (uint32_t)((uint32_t)(sAlarm->AlarmTime.SubSeconds) | (uint32_t)(sAlarm->AlarmSubSecondMask));
 8000fe6:	9301      	str	r3, [sp, #4]
 8000fe8:	69a3      	ldr	r3, [r4, #24]
              ((uint32_t)(sAlarm->AlarmDateWeekDay) << 24U) | \
 8000fea:	0600      	lsls	r0, r0, #24
  subsecondtmpreg = (uint32_t)((uint32_t)(sAlarm->AlarmTime.SubSeconds) | (uint32_t)(sAlarm->AlarmSubSecondMask));
 8000fec:	9302      	str	r3, [sp, #8]
  __HAL_RTC_WRITEPROTECTION_DISABLE(hrtc);
 8000fee:	682b      	ldr	r3, [r5, #0]
    tmpreg = (((uint32_t)(sAlarm->AlarmTime.Hours) << 16U) | \
 8000ff0:	4306      	orrs	r6, r0
  __HAL_RTC_WRITEPROTECTION_DISABLE(hrtc);
 8000ff2:	625a      	str	r2, [r3, #36]	; 0x24
 8000ff4:	3a77      	subs	r2, #119	; 0x77
 8000ff6:	625a      	str	r2, [r3, #36]	; 0x24
  __HAL_RTC_ALARMA_DISABLE(hrtc);
 8000ff8:	689a      	ldr	r2, [r3, #8]
  while(__HAL_RTC_ALARM_GET_FLAG(hrtc, RTC_FLAG_ALRAWF) == RESET)
 8000ffa:	2701      	movs	r7, #1
  __HAL_RTC_ALARMA_DISABLE(hrtc);
 8000ffc:	400a      	ands	r2, r1
 8000ffe:	609a      	str	r2, [r3, #8]
  __HAL_RTC_ALARM_CLEAR_FLAG(hrtc, RTC_FLAG_ALRAF);
 8001000:	68d9      	ldr	r1, [r3, #12]
 8001002:	4a26      	ldr	r2, [pc, #152]	; (800109c <HAL_RTC_SetAlarm_IT+0x124>)
 8001004:	b2c9      	uxtb	r1, r1
 8001006:	430a      	orrs	r2, r1
 8001008:	60da      	str	r2, [r3, #12]
  tickstart = HAL_GetTick();
 800100a:	f7ff f94f 	bl	80002ac <HAL_GetTick>
 800100e:	9003      	str	r0, [sp, #12]
  while(__HAL_RTC_ALARM_GET_FLAG(hrtc, RTC_FLAG_ALRAWF) == RESET)
 8001010:	682b      	ldr	r3, [r5, #0]
 8001012:	68dc      	ldr	r4, [r3, #12]
 8001014:	403c      	ands	r4, r7
 8001016:	d02e      	beq.n	8001076 <HAL_RTC_SetAlarm_IT+0xfe>
  subsecondtmpreg = (uint32_t)((uint32_t)(sAlarm->AlarmTime.SubSeconds) | (uint32_t)(sAlarm->AlarmSubSecondMask));
 8001018:	9902      	ldr	r1, [sp, #8]
 800101a:	9a01      	ldr	r2, [sp, #4]
  hrtc->Instance->ALRMAR = (uint32_t)tmpreg;
 800101c:	61de      	str	r6, [r3, #28]
  subsecondtmpreg = (uint32_t)((uint32_t)(sAlarm->AlarmTime.SubSeconds) | (uint32_t)(sAlarm->AlarmSubSecondMask));
 800101e:	430a      	orrs	r2, r1
  hrtc->Instance->ALRMASSR = subsecondtmpreg;
 8001020:	645a      	str	r2, [r3, #68]	; 0x44
  __HAL_RTC_ALARMA_ENABLE(hrtc);
 8001022:	2280      	movs	r2, #128	; 0x80
 8001024:	6899      	ldr	r1, [r3, #8]
 8001026:	0052      	lsls	r2, r2, #1
 8001028:	430a      	orrs	r2, r1
 800102a:	609a      	str	r2, [r3, #8]
  __HAL_RTC_ALARM_ENABLE_IT(hrtc,RTC_IT_ALRA);
 800102c:	2280      	movs	r2, #128	; 0x80
 800102e:	6899      	ldr	r1, [r3, #8]
 8001030:	0152      	lsls	r2, r2, #5
 8001032:	430a      	orrs	r2, r1
  __HAL_RTC_ALARM_EXTI_ENABLE_IT();
 8001034:	2180      	movs	r1, #128	; 0x80
  __HAL_RTC_ALARM_ENABLE_IT(hrtc,RTC_IT_ALRA);
 8001036:	609a      	str	r2, [r3, #8]
  __HAL_RTC_ALARM_EXTI_ENABLE_IT();
 8001038:	4a19      	ldr	r2, [pc, #100]	; (80010a0 <HAL_RTC_SetAlarm_IT+0x128>)
 800103a:	0289      	lsls	r1, r1, #10
 800103c:	6810      	ldr	r0, [r2, #0]
 800103e:	4308      	orrs	r0, r1
 8001040:	6010      	str	r0, [r2, #0]
  __HAL_RTC_ALARM_EXTI_ENABLE_RISING_EDGE();
 8001042:	6890      	ldr	r0, [r2, #8]
 8001044:	4301      	orrs	r1, r0
 8001046:	6091      	str	r1, [r2, #8]
  __HAL_UNLOCK(hrtc);  
 8001048:	2000      	movs	r0, #0
  __HAL_RTC_WRITEPROTECTION_ENABLE(hrtc);  
 800104a:	22ff      	movs	r2, #255	; 0xff
 800104c:	625a      	str	r2, [r3, #36]	; 0x24
  hrtc->State = HAL_RTC_STATE_READY; 
 800104e:	776f      	strb	r7, [r5, #29]
  __HAL_UNLOCK(hrtc);  
 8001050:	7728      	strb	r0, [r5, #28]
  return HAL_OK;
 8001052:	e01e      	b.n	8001092 <HAL_RTC_SetAlarm_IT+0x11a>
    if((hrtc->Instance->CR & RTC_CR_FMT) != (uint32_t)RESET)
 8001054:	2b00      	cmp	r3, #0
 8001056:	d100      	bne.n	800105a <HAL_RTC_SetAlarm_IT+0xe2>
      sAlarm->AlarmTime.TimeFormat = 0x00U;
 8001058:	70e3      	strb	r3, [r4, #3]
    tmpreg = (((uint32_t)(sAlarm->AlarmTime.Hours) << 16U) | \
 800105a:	69e3      	ldr	r3, [r4, #28]
 800105c:	6962      	ldr	r2, [r4, #20]
 800105e:	0400      	lsls	r0, r0, #16
 8001060:	4313      	orrs	r3, r2
 8001062:	431f      	orrs	r7, r3
 8001064:	4307      	orrs	r7, r0
              ((uint32_t)(sAlarm->AlarmTime.TimeFormat) << 16U) | \
 8001066:	78e0      	ldrb	r0, [r4, #3]
              ((uint32_t)(sAlarm->AlarmTime.Minutes) << 8U) | \
 8001068:	0236      	lsls	r6, r6, #8
              ((uint32_t)(sAlarm->AlarmTime.TimeFormat) << 16U) | \
 800106a:	0400      	lsls	r0, r0, #16
    tmpreg = (((uint32_t)(sAlarm->AlarmTime.Hours) << 16U) | \
 800106c:	433e      	orrs	r6, r7
              ((uint32_t)(sAlarm->AlarmDateWeekDay) << 24U) | \
 800106e:	1c63      	adds	r3, r4, #1
    tmpreg = (((uint32_t)(sAlarm->AlarmTime.Hours) << 16U) | \
 8001070:	4306      	orrs	r6, r0
              ((uint32_t)(sAlarm->AlarmDateWeekDay) << 24U) | \
 8001072:	7fd8      	ldrb	r0, [r3, #31]
 8001074:	e7b4      	b.n	8000fe0 <HAL_RTC_SetAlarm_IT+0x68>
    if((HAL_GetTick()-tickstart) > RTC_TIMEOUT_VALUE)
 8001076:	f7ff f919 	bl	80002ac <HAL_GetTick>
 800107a:	9b03      	ldr	r3, [sp, #12]
 800107c:	1ac0      	subs	r0, r0, r3
 800107e:	23fa      	movs	r3, #250	; 0xfa
 8001080:	009b      	lsls	r3, r3, #2
 8001082:	4298      	cmp	r0, r3
 8001084:	d9c4      	bls.n	8001010 <HAL_RTC_SetAlarm_IT+0x98>
      __HAL_RTC_WRITEPROTECTION_ENABLE(hrtc);
 8001086:	22ff      	movs	r2, #255	; 0xff
      hrtc->State = HAL_RTC_STATE_TIMEOUT; 
 8001088:	2003      	movs	r0, #3
      __HAL_RTC_WRITEPROTECTION_ENABLE(hrtc);
 800108a:	682b      	ldr	r3, [r5, #0]
 800108c:	625a      	str	r2, [r3, #36]	; 0x24
      hrtc->State = HAL_RTC_STATE_TIMEOUT; 
 800108e:	7768      	strb	r0, [r5, #29]
      __HAL_UNLOCK(hrtc);
 8001090:	772c      	strb	r4, [r5, #28]
}
 8001092:	b005      	add	sp, #20
 8001094:	bdf0      	pop	{r4, r5, r6, r7, pc}
 8001096:	46c0      	nop			; (mov r8, r8)
 8001098:	fffffeff 	.word	0xfffffeff
 800109c:	fffffe7f 	.word	0xfffffe7f
 80010a0:	40010400 	.word	0x40010400

080010a4 <UART_EndRxTransfer>:
  * @retval None
  */
static void UART_EndRxTransfer(UART_HandleTypeDef *huart)
{
  /* Disable RXNE, PE and ERR (Frame error, noise error, overrun error) interrupts */
  CLEAR_BIT(huart->Instance->CR1, (USART_CR1_RXNEIE | USART_CR1_PEIE));
 80010a4:	6803      	ldr	r3, [r0, #0]
 80010a6:	4906      	ldr	r1, [pc, #24]	; (80010c0 <UART_EndRxTransfer+0x1c>)
 80010a8:	681a      	ldr	r2, [r3, #0]
  CLEAR_BIT(huart->Instance->CR3, USART_CR3_EIE);

  /* At end of Rx process, restore huart->RxState to Ready */
  huart->RxState = HAL_UART_STATE_READY;
 80010aa:	306a      	adds	r0, #106	; 0x6a
  CLEAR_BIT(huart->Instance->CR1, (USART_CR1_RXNEIE | USART_CR1_PEIE));
 80010ac:	400a      	ands	r2, r1
 80010ae:	601a      	str	r2, [r3, #0]
  CLEAR_BIT(huart->Instance->CR3, USART_CR3_EIE);
 80010b0:	689a      	ldr	r2, [r3, #8]
 80010b2:	3123      	adds	r1, #35	; 0x23
 80010b4:	31ff      	adds	r1, #255	; 0xff
 80010b6:	438a      	bics	r2, r1
 80010b8:	609a      	str	r2, [r3, #8]
  huart->RxState = HAL_UART_STATE_READY;
 80010ba:	2320      	movs	r3, #32
 80010bc:	7003      	strb	r3, [r0, #0]
}
 80010be:	4770      	bx	lr
 80010c0:	fffffedf 	.word	0xfffffedf

080010c4 <HAL_UART_Receive_IT>:
{
 80010c4:	b5f0      	push	{r4, r5, r6, r7, lr}
  if(huart->RxState == HAL_UART_STATE_READY)
 80010c6:	0006      	movs	r6, r0
 80010c8:	366a      	adds	r6, #106	; 0x6a
 80010ca:	7834      	ldrb	r4, [r6, #0]
{
 80010cc:	0003      	movs	r3, r0
    return HAL_BUSY;
 80010ce:	2002      	movs	r0, #2
  if(huart->RxState == HAL_UART_STATE_READY)
 80010d0:	2c20      	cmp	r4, #32
 80010d2:	d135      	bne.n	8001140 <HAL_UART_Receive_IT+0x7c>
      return HAL_ERROR;
 80010d4:	3801      	subs	r0, #1
    if((pData == NULL ) || (Size == 0U))
 80010d6:	2900      	cmp	r1, #0
 80010d8:	d032      	beq.n	8001140 <HAL_UART_Receive_IT+0x7c>
 80010da:	2a00      	cmp	r2, #0
 80010dc:	d030      	beq.n	8001140 <HAL_UART_Receive_IT+0x7c>
    if ((huart->Init.WordLength == UART_WORDLENGTH_9B) && (huart->Init.Parity == UART_PARITY_NONE))
 80010de:	2580      	movs	r5, #128	; 0x80
 80010e0:	689c      	ldr	r4, [r3, #8]
 80010e2:	016d      	lsls	r5, r5, #5
 80010e4:	42ac      	cmp	r4, r5
 80010e6:	d104      	bne.n	80010f2 <HAL_UART_Receive_IT+0x2e>
 80010e8:	691d      	ldr	r5, [r3, #16]
 80010ea:	2d00      	cmp	r5, #0
 80010ec:	d101      	bne.n	80010f2 <HAL_UART_Receive_IT+0x2e>
      if((((uint32_t)pData)&1U) != 0U)
 80010ee:	4201      	tst	r1, r0
 80010f0:	d126      	bne.n	8001140 <HAL_UART_Receive_IT+0x7c>
    __HAL_LOCK(huart);
 80010f2:	001d      	movs	r5, r3
 80010f4:	3568      	adds	r5, #104	; 0x68
 80010f6:	782f      	ldrb	r7, [r5, #0]
    return HAL_BUSY;
 80010f8:	2002      	movs	r0, #2
    __HAL_LOCK(huart);
 80010fa:	2f01      	cmp	r7, #1
 80010fc:	d020      	beq.n	8001140 <HAL_UART_Receive_IT+0x7c>
 80010fe:	3801      	subs	r0, #1
 8001100:	7028      	strb	r0, [r5, #0]
    huart->pRxBuffPtr = pData;
 8001102:	6559      	str	r1, [r3, #84]	; 0x54
    huart->RxXferSize = Size;
 8001104:	0019      	movs	r1, r3
 8001106:	3158      	adds	r1, #88	; 0x58
 8001108:	800a      	strh	r2, [r1, #0]
    huart->RxXferCount = Size;
 800110a:	804a      	strh	r2, [r1, #2]
    UART_MASK_COMPUTATION(huart);
 800110c:	2280      	movs	r2, #128	; 0x80
 800110e:	0152      	lsls	r2, r2, #5
 8001110:	4294      	cmp	r4, r2
 8001112:	d118      	bne.n	8001146 <HAL_UART_Receive_IT+0x82>
 8001114:	691a      	ldr	r2, [r3, #16]
 8001116:	2a00      	cmp	r2, #0
 8001118:	d113      	bne.n	8001142 <HAL_UART_Receive_IT+0x7e>
 800111a:	4913      	ldr	r1, [pc, #76]	; (8001168 <HAL_UART_Receive_IT+0xa4>)
 800111c:	001a      	movs	r2, r3
 800111e:	325c      	adds	r2, #92	; 0x5c
 8001120:	8011      	strh	r1, [r2, #0]
    huart->ErrorCode = HAL_UART_ERROR_NONE;
 8001122:	2000      	movs	r0, #0
    huart->RxState = HAL_UART_STATE_BUSY_RX;
 8001124:	2222      	movs	r2, #34	; 0x22
    huart->ErrorCode = HAL_UART_ERROR_NONE;
 8001126:	66d8      	str	r0, [r3, #108]	; 0x6c
    SET_BIT(huart->Instance->CR3, USART_CR3_EIE);
 8001128:	681b      	ldr	r3, [r3, #0]
    huart->RxState = HAL_UART_STATE_BUSY_RX;
 800112a:	7032      	strb	r2, [r6, #0]
    SET_BIT(huart->Instance->CR3, USART_CR3_EIE);
 800112c:	6899      	ldr	r1, [r3, #8]
 800112e:	3a21      	subs	r2, #33	; 0x21
 8001130:	430a      	orrs	r2, r1
    __HAL_UNLOCK(huart);
 8001132:	7028      	strb	r0, [r5, #0]
    SET_BIT(huart->Instance->CR3, USART_CR3_EIE);
 8001134:	609a      	str	r2, [r3, #8]
    SET_BIT(huart->Instance->CR1, USART_CR1_PEIE | USART_CR1_RXNEIE);
 8001136:	2290      	movs	r2, #144	; 0x90
 8001138:	6819      	ldr	r1, [r3, #0]
 800113a:	0052      	lsls	r2, r2, #1
 800113c:	430a      	orrs	r2, r1
 800113e:	601a      	str	r2, [r3, #0]
}
 8001140:	bdf0      	pop	{r4, r5, r6, r7, pc}
    UART_MASK_COMPUTATION(huart);
 8001142:	21ff      	movs	r1, #255	; 0xff
 8001144:	e7ea      	b.n	800111c <HAL_UART_Receive_IT+0x58>
 8001146:	2c00      	cmp	r4, #0
 8001148:	d104      	bne.n	8001154 <HAL_UART_Receive_IT+0x90>
 800114a:	691a      	ldr	r2, [r3, #16]
 800114c:	2a00      	cmp	r2, #0
 800114e:	d0f8      	beq.n	8001142 <HAL_UART_Receive_IT+0x7e>
 8001150:	217f      	movs	r1, #127	; 0x7f
 8001152:	e7e3      	b.n	800111c <HAL_UART_Receive_IT+0x58>
 8001154:	2280      	movs	r2, #128	; 0x80
 8001156:	0552      	lsls	r2, r2, #21
 8001158:	4294      	cmp	r4, r2
 800115a:	d1e2      	bne.n	8001122 <HAL_UART_Receive_IT+0x5e>
 800115c:	691a      	ldr	r2, [r3, #16]
 800115e:	2a00      	cmp	r2, #0
 8001160:	d0f6      	beq.n	8001150 <HAL_UART_Receive_IT+0x8c>
 8001162:	213f      	movs	r1, #63	; 0x3f
 8001164:	e7da      	b.n	800111c <HAL_UART_Receive_IT+0x58>
 8001166:	46c0      	nop			; (mov r8, r8)
 8001168:	000001ff 	.word	0x000001ff

0800116c <HAL_UART_TxCpltCallback>:
 800116c:	4770      	bx	lr

0800116e <HAL_UART_ErrorCallback>:
 800116e:	4770      	bx	lr

08001170 <UART_DMAAbortOnError>:
  * @param  hdma DMA handle.
  * @retval None
  */
static void UART_DMAAbortOnError(DMA_HandleTypeDef *hdma)
{
  UART_HandleTypeDef* huart = (UART_HandleTypeDef*)(hdma->Parent);
 8001170:	6a40      	ldr	r0, [r0, #36]	; 0x24
  huart->RxXferCount = 0U;
 8001172:	2300      	movs	r3, #0
 8001174:	0002      	movs	r2, r0
{
 8001176:	b510      	push	{r4, lr}
  huart->RxXferCount = 0U;
 8001178:	325a      	adds	r2, #90	; 0x5a
 800117a:	8013      	strh	r3, [r2, #0]
  huart->TxXferCount = 0U;
 800117c:	3a08      	subs	r2, #8
 800117e:	8013      	strh	r3, [r2, #0]

  HAL_UART_ErrorCallback(huart);
 8001180:	f7ff fff5 	bl	800116e <HAL_UART_ErrorCallback>
}
 8001184:	bd10      	pop	{r4, pc}
	...

08001188 <UART_SetConfig>:
{
 8001188:	b570      	push	{r4, r5, r6, lr}
 800118a:	0004      	movs	r4, r0
  MODIFY_REG(huart->Instance->CR1, UART_CR1_FIELDS, tmpreg);
 800118c:	6805      	ldr	r5, [r0, #0]
  tmpreg = (uint32_t)huart->Init.WordLength | huart->Init.Parity | huart->Init.Mode | huart->Init.OverSampling ;
 800118e:	69c2      	ldr	r2, [r0, #28]
 8001190:	6883      	ldr	r3, [r0, #8]
 8001192:	6900      	ldr	r0, [r0, #16]
  MODIFY_REG(huart->Instance->CR1, UART_CR1_FIELDS, tmpreg);
 8001194:	6829      	ldr	r1, [r5, #0]
  tmpreg = (uint32_t)huart->Init.WordLength | huart->Init.Parity | huart->Init.Mode | huart->Init.OverSampling ;
 8001196:	4303      	orrs	r3, r0
 8001198:	6960      	ldr	r0, [r4, #20]
  UART_GETCLOCKSOURCE(huart, clocksource);
 800119a:	4e3f      	ldr	r6, [pc, #252]	; (8001298 <UART_SetConfig+0x110>)
  tmpreg = (uint32_t)huart->Init.WordLength | huart->Init.Parity | huart->Init.Mode | huart->Init.OverSampling ;
 800119c:	4303      	orrs	r3, r0
  MODIFY_REG(huart->Instance->CR1, UART_CR1_FIELDS, tmpreg);
 800119e:	483f      	ldr	r0, [pc, #252]	; (800129c <UART_SetConfig+0x114>)
  tmpreg = (uint32_t)huart->Init.WordLength | huart->Init.Parity | huart->Init.Mode | huart->Init.OverSampling ;
 80011a0:	4313      	orrs	r3, r2
  MODIFY_REG(huart->Instance->CR1, UART_CR1_FIELDS, tmpreg);
 80011a2:	4001      	ands	r1, r0
 80011a4:	430b      	orrs	r3, r1
 80011a6:	602b      	str	r3, [r5, #0]
  MODIFY_REG(huart->Instance->CR2, USART_CR2_STOP, huart->Init.StopBits);
 80011a8:	686b      	ldr	r3, [r5, #4]
 80011aa:	493d      	ldr	r1, [pc, #244]	; (80012a0 <UART_SetConfig+0x118>)
  tmpreg = (uint32_t)huart->Init.HwFlowCtl | huart->Init.OneBitSampling ;
 80011ac:	6a20      	ldr	r0, [r4, #32]
  MODIFY_REG(huart->Instance->CR2, USART_CR2_STOP, huart->Init.StopBits);
 80011ae:	400b      	ands	r3, r1
 80011b0:	68e1      	ldr	r1, [r4, #12]
 80011b2:	430b      	orrs	r3, r1
 80011b4:	606b      	str	r3, [r5, #4]
  tmpreg = (uint32_t)huart->Init.HwFlowCtl | huart->Init.OneBitSampling ;
 80011b6:	69a3      	ldr	r3, [r4, #24]
  MODIFY_REG(huart->Instance->CR3, (USART_CR3_RTSE | USART_CR3_CTSE | USART_CR3_ONEBIT), tmpreg);
 80011b8:	68a9      	ldr	r1, [r5, #8]
  tmpreg = (uint32_t)huart->Init.HwFlowCtl | huart->Init.OneBitSampling ;
 80011ba:	4303      	orrs	r3, r0
  MODIFY_REG(huart->Instance->CR3, (USART_CR3_RTSE | USART_CR3_CTSE | USART_CR3_ONEBIT), tmpreg);
 80011bc:	4839      	ldr	r0, [pc, #228]	; (80012a4 <UART_SetConfig+0x11c>)
 80011be:	4001      	ands	r1, r0
 80011c0:	430b      	orrs	r3, r1
 80011c2:	60ab      	str	r3, [r5, #8]
 80011c4:	2380      	movs	r3, #128	; 0x80
 80011c6:	021b      	lsls	r3, r3, #8
  UART_GETCLOCKSOURCE(huart, clocksource);
 80011c8:	42b5      	cmp	r5, r6
 80011ca:	d110      	bne.n	80011ee <UART_SetConfig+0x66>
 80011cc:	2003      	movs	r0, #3
 80011ce:	4936      	ldr	r1, [pc, #216]	; (80012a8 <UART_SetConfig+0x120>)
 80011d0:	6b09      	ldr	r1, [r1, #48]	; 0x30
 80011d2:	4001      	ands	r1, r0
 80011d4:	4835      	ldr	r0, [pc, #212]	; (80012ac <UART_SetConfig+0x124>)
 80011d6:	5c40      	ldrb	r0, [r0, r1]
  if (huart->Init.OverSampling == UART_OVERSAMPLING_8)
 80011d8:	429a      	cmp	r2, r3
 80011da:	d013      	beq.n	8001204 <UART_SetConfig+0x7c>
    switch (clocksource)
 80011dc:	2808      	cmp	r0, #8
 80011de:	d858      	bhi.n	8001292 <UART_SetConfig+0x10a>
 80011e0:	f7fe ffa4 	bl	800012c <__gnu_thumb1_case_uqi>
 80011e4:	57425737 	.word	0x57425737
 80011e8:	5757574b 	.word	0x5757574b
 80011ec:	50          	.byte	0x50
 80011ed:	00          	.byte	0x00
  UART_GETCLOCKSOURCE(huart, clocksource);
 80011ee:	4930      	ldr	r1, [pc, #192]	; (80012b0 <UART_SetConfig+0x128>)
 80011f0:	428d      	cmp	r5, r1
 80011f2:	d14c      	bne.n	800128e <UART_SetConfig+0x106>
  if (huart->Init.OverSampling == UART_OVERSAMPLING_8)
 80011f4:	429a      	cmp	r2, r3
 80011f6:	d12c      	bne.n	8001252 <UART_SetConfig+0xca>
        usartdiv = (uint16_t)(UART_DIV_SAMPLING8(HAL_RCC_GetPCLK1Freq(), huart->Init.BaudRate));
 80011f8:	f7ff fc98 	bl	8000b2c <HAL_RCC_GetPCLK1Freq>
        usartdiv = (uint16_t)(UART_DIV_SAMPLING8(HAL_RCC_GetSysClockFreq(), huart->Init.BaudRate));
 80011fc:	6863      	ldr	r3, [r4, #4]
 80011fe:	0040      	lsls	r0, r0, #1
 8001200:	085b      	lsrs	r3, r3, #1
 8001202:	e00b      	b.n	800121c <UART_SetConfig+0x94>
    switch (clocksource)
 8001204:	2808      	cmp	r0, #8
 8001206:	d821      	bhi.n	800124c <UART_SetConfig+0xc4>
 8001208:	f7fe ff86 	bl	8000118 <__gnu_thumb1_case_sqi>
 800120c:	200520f6 	.word	0x200520f6
 8001210:	20202018 	.word	0x20202018
 8001214:	1b          	.byte	0x1b
 8001215:	00          	.byte	0x00
        usartdiv = (uint16_t)(UART_DIV_SAMPLING8(HSI_VALUE, huart->Init.BaudRate));
 8001216:	6863      	ldr	r3, [r4, #4]
 8001218:	0858      	lsrs	r0, r3, #1
 800121a:	4b26      	ldr	r3, [pc, #152]	; (80012b4 <UART_SetConfig+0x12c>)
        usartdiv = (uint16_t)(UART_DIV_SAMPLING8(LSE_VALUE, huart->Init.BaudRate));
 800121c:	18c0      	adds	r0, r0, r3
 800121e:	6861      	ldr	r1, [r4, #4]
 8001220:	f7fe ff8e 	bl	8000140 <__udivsi3>
 8001224:	b283      	uxth	r3, r0
  HAL_StatusTypeDef ret               = HAL_OK;
 8001226:	2000      	movs	r0, #0
    brrtemp = usartdiv & 0xFFF0U;
 8001228:	220f      	movs	r2, #15
 800122a:	0019      	movs	r1, r3
 800122c:	4391      	bics	r1, r2
 800122e:	000a      	movs	r2, r1
    brrtemp |= (uint16_t)((usartdiv & (uint16_t)0x000FU) >> 1U);
 8001230:	071b      	lsls	r3, r3, #28
    huart->Instance->BRR = brrtemp;
 8001232:	6821      	ldr	r1, [r4, #0]
    brrtemp |= (uint16_t)((usartdiv & (uint16_t)0x000FU) >> 1U);
 8001234:	0f5b      	lsrs	r3, r3, #29
    huart->Instance->BRR = brrtemp;
 8001236:	4313      	orrs	r3, r2
 8001238:	60cb      	str	r3, [r1, #12]
}
 800123a:	bd70      	pop	{r4, r5, r6, pc}
        usartdiv = (uint16_t)(UART_DIV_SAMPLING8(HAL_RCC_GetSysClockFreq(), huart->Init.BaudRate));
 800123c:	f7ff fbae 	bl	800099c <HAL_RCC_GetSysClockFreq>
 8001240:	e7dc      	b.n	80011fc <UART_SetConfig+0x74>
        usartdiv = (uint16_t)(UART_DIV_SAMPLING8(LSE_VALUE, huart->Init.BaudRate));
 8001242:	6863      	ldr	r3, [r4, #4]
 8001244:	0858      	lsrs	r0, r3, #1
 8001246:	2380      	movs	r3, #128	; 0x80
 8001248:	025b      	lsls	r3, r3, #9
 800124a:	e7e7      	b.n	800121c <UART_SetConfig+0x94>
        ret = HAL_ERROR;
 800124c:	2001      	movs	r0, #1
  uint16_t usartdiv                   = 0x0000U;
 800124e:	2300      	movs	r3, #0
 8001250:	e7ea      	b.n	8001228 <UART_SetConfig+0xa0>
        huart->Instance->BRR = (uint16_t)(UART_DIV_SAMPLING16(HAL_RCC_GetPCLK1Freq(), huart->Init.BaudRate));
 8001252:	f7ff fc6b 	bl	8000b2c <HAL_RCC_GetPCLK1Freq>
 8001256:	6861      	ldr	r1, [r4, #4]
 8001258:	084b      	lsrs	r3, r1, #1
 800125a:	1818      	adds	r0, r3, r0
 800125c:	f7fe ff70 	bl	8000140 <__udivsi3>
 8001260:	b280      	uxth	r0, r0
 8001262:	60e8      	str	r0, [r5, #12]
  HAL_StatusTypeDef ret               = HAL_OK;
 8001264:	2000      	movs	r0, #0
        break;
 8001266:	e7e8      	b.n	800123a <UART_SetConfig+0xb2>
        huart->Instance->BRR = (uint16_t)(UART_DIV_SAMPLING16(HSI_VALUE, huart->Init.BaudRate));
 8001268:	6861      	ldr	r1, [r4, #4]
 800126a:	4b13      	ldr	r3, [pc, #76]	; (80012b8 <UART_SetConfig+0x130>)
 800126c:	0848      	lsrs	r0, r1, #1
        huart->Instance->BRR = (uint16_t)(UART_DIV_SAMPLING16(LSE_VALUE, huart->Init.BaudRate));
 800126e:	18c0      	adds	r0, r0, r3
 8001270:	f7fe ff66 	bl	8000140 <__udivsi3>
 8001274:	b280      	uxth	r0, r0
 8001276:	60f0      	str	r0, [r6, #12]
 8001278:	e7f4      	b.n	8001264 <UART_SetConfig+0xdc>
        huart->Instance->BRR = (uint16_t)(UART_DIV_SAMPLING16(HAL_RCC_GetSysClockFreq(), huart->Init.BaudRate));
 800127a:	f7ff fb8f 	bl	800099c <HAL_RCC_GetSysClockFreq>
 800127e:	6861      	ldr	r1, [r4, #4]
 8001280:	084b      	lsrs	r3, r1, #1
 8001282:	e7f4      	b.n	800126e <UART_SetConfig+0xe6>
        huart->Instance->BRR = (uint16_t)(UART_DIV_SAMPLING16(LSE_VALUE, huart->Init.BaudRate));
 8001284:	2380      	movs	r3, #128	; 0x80
 8001286:	6861      	ldr	r1, [r4, #4]
 8001288:	021b      	lsls	r3, r3, #8
 800128a:	0848      	lsrs	r0, r1, #1
 800128c:	e7ef      	b.n	800126e <UART_SetConfig+0xe6>
  if (huart->Init.OverSampling == UART_OVERSAMPLING_8)
 800128e:	429a      	cmp	r2, r3
 8001290:	d0dc      	beq.n	800124c <UART_SetConfig+0xc4>
        ret = HAL_ERROR;
 8001292:	2001      	movs	r0, #1
  return ret;
 8001294:	e7d1      	b.n	800123a <UART_SetConfig+0xb2>
 8001296:	46c0      	nop			; (mov r8, r8)
 8001298:	40013800 	.word	0x40013800
 800129c:	efff69f3 	.word	0xefff69f3
 80012a0:	ffffcfff 	.word	0xffffcfff
 80012a4:	fffff4ff 	.word	0xfffff4ff
 80012a8:	40021000 	.word	0x40021000
 80012ac:	08003158 	.word	0x08003158
 80012b0:	40004400 	.word	0x40004400
 80012b4:	00f42400 	.word	0x00f42400
 80012b8:	007a1200 	.word	0x007a1200

080012bc <UART_AdvFeatureConfig>:
  if(HAL_IS_BIT_SET(huart->AdvancedInit.AdvFeatureInit, UART_ADVFEATURE_TXINVERT_INIT))
 80012bc:	6a43      	ldr	r3, [r0, #36]	; 0x24
{
 80012be:	b530      	push	{r4, r5, lr}
  if(HAL_IS_BIT_SET(huart->AdvancedInit.AdvFeatureInit, UART_ADVFEATURE_TXINVERT_INIT))
 80012c0:	07da      	lsls	r2, r3, #31
 80012c2:	d506      	bpl.n	80012d2 <UART_AdvFeatureConfig+0x16>
    MODIFY_REG(huart->Instance->CR2, USART_CR2_TXINV, huart->AdvancedInit.TxPinLevelInvert);
 80012c4:	6801      	ldr	r1, [r0, #0]
 80012c6:	4c28      	ldr	r4, [pc, #160]	; (8001368 <UART_AdvFeatureConfig+0xac>)
 80012c8:	684a      	ldr	r2, [r1, #4]
 80012ca:	4022      	ands	r2, r4
 80012cc:	6a84      	ldr	r4, [r0, #40]	; 0x28
 80012ce:	4322      	orrs	r2, r4
 80012d0:	604a      	str	r2, [r1, #4]
  if(HAL_IS_BIT_SET(huart->AdvancedInit.AdvFeatureInit, UART_ADVFEATURE_RXINVERT_INIT))
 80012d2:	079a      	lsls	r2, r3, #30
 80012d4:	d506      	bpl.n	80012e4 <UART_AdvFeatureConfig+0x28>
    MODIFY_REG(huart->Instance->CR2, USART_CR2_RXINV, huart->AdvancedInit.RxPinLevelInvert);
 80012d6:	6801      	ldr	r1, [r0, #0]
 80012d8:	4c24      	ldr	r4, [pc, #144]	; (800136c <UART_AdvFeatureConfig+0xb0>)
 80012da:	684a      	ldr	r2, [r1, #4]
 80012dc:	4022      	ands	r2, r4
 80012de:	6ac4      	ldr	r4, [r0, #44]	; 0x2c
 80012e0:	4322      	orrs	r2, r4
 80012e2:	604a      	str	r2, [r1, #4]
  if(HAL_IS_BIT_SET(huart->AdvancedInit.AdvFeatureInit, UART_ADVFEATURE_DATAINVERT_INIT))
 80012e4:	075a      	lsls	r2, r3, #29
 80012e6:	d506      	bpl.n	80012f6 <UART_AdvFeatureConfig+0x3a>
    MODIFY_REG(huart->Instance->CR2, USART_CR2_DATAINV, huart->AdvancedInit.DataInvert);
 80012e8:	6801      	ldr	r1, [r0, #0]
 80012ea:	4c21      	ldr	r4, [pc, #132]	; (8001370 <UART_AdvFeatureConfig+0xb4>)
 80012ec:	684a      	ldr	r2, [r1, #4]
 80012ee:	4022      	ands	r2, r4
 80012f0:	6b04      	ldr	r4, [r0, #48]	; 0x30
 80012f2:	4322      	orrs	r2, r4
 80012f4:	604a      	str	r2, [r1, #4]
  if(HAL_IS_BIT_SET(huart->AdvancedInit.AdvFeatureInit, UART_ADVFEATURE_SWAP_INIT))
 80012f6:	071a      	lsls	r2, r3, #28
 80012f8:	d506      	bpl.n	8001308 <UART_AdvFeatureConfig+0x4c>
    MODIFY_REG(huart->Instance->CR2, USART_CR2_SWAP, huart->AdvancedInit.Swap);
 80012fa:	6801      	ldr	r1, [r0, #0]
 80012fc:	4c1d      	ldr	r4, [pc, #116]	; (8001374 <UART_AdvFeatureConfig+0xb8>)
 80012fe:	684a      	ldr	r2, [r1, #4]
 8001300:	4022      	ands	r2, r4
 8001302:	6b44      	ldr	r4, [r0, #52]	; 0x34
 8001304:	4322      	orrs	r2, r4
 8001306:	604a      	str	r2, [r1, #4]
  if(HAL_IS_BIT_SET(huart->AdvancedInit.AdvFeatureInit, UART_ADVFEATURE_RXOVERRUNDISABLE_INIT))
 8001308:	06da      	lsls	r2, r3, #27
 800130a:	d506      	bpl.n	800131a <UART_AdvFeatureConfig+0x5e>
    MODIFY_REG(huart->Instance->CR3, USART_CR3_OVRDIS, huart->AdvancedInit.OverrunDisable);
 800130c:	6801      	ldr	r1, [r0, #0]
 800130e:	4c1a      	ldr	r4, [pc, #104]	; (8001378 <UART_AdvFeatureConfig+0xbc>)
 8001310:	688a      	ldr	r2, [r1, #8]
 8001312:	4022      	ands	r2, r4
 8001314:	6b84      	ldr	r4, [r0, #56]	; 0x38
 8001316:	4322      	orrs	r2, r4
 8001318:	608a      	str	r2, [r1, #8]
  if(HAL_IS_BIT_SET(huart->AdvancedInit.AdvFeatureInit, UART_ADVFEATURE_DMADISABLEONERROR_INIT))
 800131a:	069a      	lsls	r2, r3, #26
 800131c:	d506      	bpl.n	800132c <UART_AdvFeatureConfig+0x70>
    MODIFY_REG(huart->Instance->CR3, USART_CR3_DDRE, huart->AdvancedInit.DMADisableonRxError);
 800131e:	6801      	ldr	r1, [r0, #0]
 8001320:	4c16      	ldr	r4, [pc, #88]	; (800137c <UART_AdvFeatureConfig+0xc0>)
 8001322:	688a      	ldr	r2, [r1, #8]
 8001324:	4022      	ands	r2, r4
 8001326:	6bc4      	ldr	r4, [r0, #60]	; 0x3c
 8001328:	4322      	orrs	r2, r4
 800132a:	608a      	str	r2, [r1, #8]
  if(HAL_IS_BIT_SET(huart->AdvancedInit.AdvFeatureInit, UART_ADVFEATURE_AUTOBAUDRATE_INIT))
 800132c:	065a      	lsls	r2, r3, #25
 800132e:	d510      	bpl.n	8001352 <UART_AdvFeatureConfig+0x96>
    MODIFY_REG(huart->Instance->CR2, USART_CR2_ABREN, huart->AdvancedInit.AutoBaudRateEnable);
 8001330:	6801      	ldr	r1, [r0, #0]
 8001332:	4d13      	ldr	r5, [pc, #76]	; (8001380 <UART_AdvFeatureConfig+0xc4>)
 8001334:	684a      	ldr	r2, [r1, #4]
 8001336:	6c04      	ldr	r4, [r0, #64]	; 0x40
 8001338:	402a      	ands	r2, r5
 800133a:	4322      	orrs	r2, r4
 800133c:	604a      	str	r2, [r1, #4]
    if(huart->AdvancedInit.AutoBaudRateEnable == UART_ADVFEATURE_AUTOBAUDRATE_ENABLE)
 800133e:	2280      	movs	r2, #128	; 0x80
 8001340:	0352      	lsls	r2, r2, #13
 8001342:	4294      	cmp	r4, r2
 8001344:	d105      	bne.n	8001352 <UART_AdvFeatureConfig+0x96>
      MODIFY_REG(huart->Instance->CR2, USART_CR2_ABRMODE, huart->AdvancedInit.AutoBaudRateMode);
 8001346:	684a      	ldr	r2, [r1, #4]
 8001348:	4c0e      	ldr	r4, [pc, #56]	; (8001384 <UART_AdvFeatureConfig+0xc8>)
 800134a:	4022      	ands	r2, r4
 800134c:	6c44      	ldr	r4, [r0, #68]	; 0x44
 800134e:	4322      	orrs	r2, r4
 8001350:	604a      	str	r2, [r1, #4]
  if(HAL_IS_BIT_SET(huart->AdvancedInit.AdvFeatureInit, UART_ADVFEATURE_MSBFIRST_INIT))
 8001352:	061b      	lsls	r3, r3, #24
 8001354:	d506      	bpl.n	8001364 <UART_AdvFeatureConfig+0xa8>
    MODIFY_REG(huart->Instance->CR2, USART_CR2_MSBFIRST, huart->AdvancedInit.MSBFirst);
 8001356:	6802      	ldr	r2, [r0, #0]
 8001358:	490b      	ldr	r1, [pc, #44]	; (8001388 <UART_AdvFeatureConfig+0xcc>)
 800135a:	6853      	ldr	r3, [r2, #4]
 800135c:	400b      	ands	r3, r1
 800135e:	6c81      	ldr	r1, [r0, #72]	; 0x48
 8001360:	430b      	orrs	r3, r1
 8001362:	6053      	str	r3, [r2, #4]
}
 8001364:	bd30      	pop	{r4, r5, pc}
 8001366:	46c0      	nop			; (mov r8, r8)
 8001368:	fffdffff 	.word	0xfffdffff
 800136c:	fffeffff 	.word	0xfffeffff
 8001370:	fffbffff 	.word	0xfffbffff
 8001374:	ffff7fff 	.word	0xffff7fff
 8001378:	ffffefff 	.word	0xffffefff
 800137c:	ffffdfff 	.word	0xffffdfff
 8001380:	ffefffff 	.word	0xffefffff
 8001384:	ff9fffff 	.word	0xff9fffff
 8001388:	fff7ffff 	.word	0xfff7ffff

0800138c <HAL_UART_Init>:
{
 800138c:	b570      	push	{r4, r5, r6, lr}
 800138e:	1e04      	subs	r4, r0, #0
  if(huart == NULL)
 8001390:	d101      	bne.n	8001396 <HAL_UART_Init+0xa>
    return HAL_ERROR;
 8001392:	2001      	movs	r0, #1
}
 8001394:	bd70      	pop	{r4, r5, r6, pc}
  if(huart->gState == HAL_UART_STATE_RESET)
 8001396:	0005      	movs	r5, r0
 8001398:	3569      	adds	r5, #105	; 0x69
 800139a:	782b      	ldrb	r3, [r5, #0]
 800139c:	b2db      	uxtb	r3, r3
 800139e:	2b00      	cmp	r3, #0
 80013a0:	d104      	bne.n	80013ac <HAL_UART_Init+0x20>
    huart->Lock = HAL_UNLOCKED;
 80013a2:	0002      	movs	r2, r0
 80013a4:	3268      	adds	r2, #104	; 0x68
 80013a6:	7013      	strb	r3, [r2, #0]
    HAL_UART_MspInit(huart);
 80013a8:	f001 fd80 	bl	8002eac <HAL_UART_MspInit>
  huart->gState = HAL_UART_STATE_BUSY;
 80013ac:	2324      	movs	r3, #36	; 0x24
  __HAL_UART_DISABLE(huart);
 80013ae:	2101      	movs	r1, #1
 80013b0:	6822      	ldr	r2, [r4, #0]
  huart->gState = HAL_UART_STATE_BUSY;
 80013b2:	702b      	strb	r3, [r5, #0]
  __HAL_UART_DISABLE(huart);
 80013b4:	6813      	ldr	r3, [r2, #0]
  if (UART_SetConfig(huart) == HAL_ERROR)
 80013b6:	0020      	movs	r0, r4
  __HAL_UART_DISABLE(huart);
 80013b8:	438b      	bics	r3, r1
 80013ba:	6013      	str	r3, [r2, #0]
  if (UART_SetConfig(huart) == HAL_ERROR)
 80013bc:	f7ff fee4 	bl	8001188 <UART_SetConfig>
 80013c0:	2801      	cmp	r0, #1
 80013c2:	d0e6      	beq.n	8001392 <HAL_UART_Init+0x6>
  if (huart->AdvancedInit.AdvFeatureInit != UART_ADVFEATURE_NO_INIT)
 80013c4:	6a63      	ldr	r3, [r4, #36]	; 0x24
 80013c6:	2b00      	cmp	r3, #0
 80013c8:	d002      	beq.n	80013d0 <HAL_UART_Init+0x44>
    UART_AdvFeatureConfig(huart);
 80013ca:	0020      	movs	r0, r4
 80013cc:	f7ff ff76 	bl	80012bc <UART_AdvFeatureConfig>
  CLEAR_BIT(huart->Instance->CR2, USART_CR2_CLKEN);
 80013d0:	6823      	ldr	r3, [r4, #0]
 80013d2:	490b      	ldr	r1, [pc, #44]	; (8001400 <HAL_UART_Init+0x74>)
 80013d4:	685a      	ldr	r2, [r3, #4]
  huart->ErrorCode = HAL_UART_ERROR_NONE;
 80013d6:	2000      	movs	r0, #0
  CLEAR_BIT(huart->Instance->CR2, USART_CR2_CLKEN);
 80013d8:	400a      	ands	r2, r1
  CLEAR_BIT(huart->Instance->CR3, USART_CR3_HDSEL);
 80013da:	2108      	movs	r1, #8
  CLEAR_BIT(huart->Instance->CR2, USART_CR2_CLKEN);
 80013dc:	605a      	str	r2, [r3, #4]
  CLEAR_BIT(huart->Instance->CR3, USART_CR3_HDSEL);
 80013de:	689a      	ldr	r2, [r3, #8]
 80013e0:	438a      	bics	r2, r1
 80013e2:	609a      	str	r2, [r3, #8]
  __HAL_UART_ENABLE(huart);
 80013e4:	2201      	movs	r2, #1
 80013e6:	6819      	ldr	r1, [r3, #0]
 80013e8:	430a      	orrs	r2, r1
 80013ea:	601a      	str	r2, [r3, #0]
  huart->RxState = HAL_UART_STATE_READY;
 80013ec:	0022      	movs	r2, r4
  huart->gState  = HAL_UART_STATE_READY;
 80013ee:	2320      	movs	r3, #32
  huart->ErrorCode = HAL_UART_ERROR_NONE;
 80013f0:	66e0      	str	r0, [r4, #108]	; 0x6c
  huart->RxState = HAL_UART_STATE_READY;
 80013f2:	326a      	adds	r2, #106	; 0x6a
  __HAL_UNLOCK(huart);
 80013f4:	3468      	adds	r4, #104	; 0x68
  huart->gState  = HAL_UART_STATE_READY;
 80013f6:	702b      	strb	r3, [r5, #0]
  huart->RxState = HAL_UART_STATE_READY;
 80013f8:	7013      	strb	r3, [r2, #0]
  __HAL_UNLOCK(huart);
 80013fa:	7020      	strb	r0, [r4, #0]
  return (UART_CheckIdleState(huart));
 80013fc:	e7ca      	b.n	8001394 <HAL_UART_Init+0x8>
 80013fe:	46c0      	nop			; (mov r8, r8)
 8001400:	fffff7ff 	.word	0xfffff7ff

08001404 <UART_WaitOnFlagUntilTimeout>:
{
 8001404:	b5f8      	push	{r3, r4, r5, r6, r7, lr}
 8001406:	0004      	movs	r4, r0
 8001408:	000e      	movs	r6, r1
 800140a:	0015      	movs	r5, r2
 800140c:	001f      	movs	r7, r3
  while((__HAL_UART_GET_FLAG(huart, Flag) ? SET : RESET) == Status)
 800140e:	6822      	ldr	r2, [r4, #0]
 8001410:	69d3      	ldr	r3, [r2, #28]
 8001412:	4033      	ands	r3, r6
 8001414:	1b9b      	subs	r3, r3, r6
 8001416:	4259      	negs	r1, r3
 8001418:	414b      	adcs	r3, r1
 800141a:	42ab      	cmp	r3, r5
 800141c:	d001      	beq.n	8001422 <UART_WaitOnFlagUntilTimeout+0x1e>
  return HAL_OK;
 800141e:	2000      	movs	r0, #0
 8001420:	e018      	b.n	8001454 <UART_WaitOnFlagUntilTimeout+0x50>
    if(Timeout != HAL_MAX_DELAY)
 8001422:	9b06      	ldr	r3, [sp, #24]
 8001424:	3301      	adds	r3, #1
 8001426:	d0f3      	beq.n	8001410 <UART_WaitOnFlagUntilTimeout+0xc>
      if((Timeout == 0U) || ((HAL_GetTick()-Tickstart) > Timeout))
 8001428:	9b06      	ldr	r3, [sp, #24]
 800142a:	2b00      	cmp	r3, #0
 800142c:	d113      	bne.n	8001456 <UART_WaitOnFlagUntilTimeout+0x52>
        CLEAR_BIT(huart->Instance->CR1, (USART_CR1_RXNEIE | USART_CR1_PEIE | USART_CR1_TXEIE));
 800142e:	6823      	ldr	r3, [r4, #0]
 8001430:	490c      	ldr	r1, [pc, #48]	; (8001464 <UART_WaitOnFlagUntilTimeout+0x60>)
 8001432:	681a      	ldr	r2, [r3, #0]
        __HAL_UNLOCK(huart);
 8001434:	2003      	movs	r0, #3
        CLEAR_BIT(huart->Instance->CR1, (USART_CR1_RXNEIE | USART_CR1_PEIE | USART_CR1_TXEIE));
 8001436:	400a      	ands	r2, r1
 8001438:	601a      	str	r2, [r3, #0]
        CLEAR_BIT(huart->Instance->CR3, USART_CR3_EIE);
 800143a:	689a      	ldr	r2, [r3, #8]
 800143c:	31a3      	adds	r1, #163	; 0xa3
 800143e:	31ff      	adds	r1, #255	; 0xff
 8001440:	438a      	bics	r2, r1
 8001442:	609a      	str	r2, [r3, #8]
        huart->gState  = HAL_UART_STATE_READY;
 8001444:	0022      	movs	r2, r4
 8001446:	2320      	movs	r3, #32
 8001448:	3269      	adds	r2, #105	; 0x69
 800144a:	7013      	strb	r3, [r2, #0]
        huart->RxState = HAL_UART_STATE_READY;
 800144c:	7053      	strb	r3, [r2, #1]
        __HAL_UNLOCK(huart);
 800144e:	2300      	movs	r3, #0
 8001450:	3468      	adds	r4, #104	; 0x68
 8001452:	7023      	strb	r3, [r4, #0]
}
 8001454:	bdf8      	pop	{r3, r4, r5, r6, r7, pc}
      if((Timeout == 0U) || ((HAL_GetTick()-Tickstart) > Timeout))
 8001456:	f7fe ff29 	bl	80002ac <HAL_GetTick>
 800145a:	9b06      	ldr	r3, [sp, #24]
 800145c:	1bc0      	subs	r0, r0, r7
 800145e:	4283      	cmp	r3, r0
 8001460:	d2d5      	bcs.n	800140e <UART_WaitOnFlagUntilTimeout+0xa>
 8001462:	e7e4      	b.n	800142e <UART_WaitOnFlagUntilTimeout+0x2a>
 8001464:	fffffe5f 	.word	0xfffffe5f

08001468 <HAL_UART_Transmit>:
{
 8001468:	b5f0      	push	{r4, r5, r6, r7, lr}
  if(huart->gState == HAL_UART_STATE_READY)
 800146a:	0007      	movs	r7, r0
{
 800146c:	b085      	sub	sp, #20
 800146e:	9303      	str	r3, [sp, #12]
  if(huart->gState == HAL_UART_STATE_READY)
 8001470:	3769      	adds	r7, #105	; 0x69
 8001472:	783b      	ldrb	r3, [r7, #0]
{
 8001474:	0004      	movs	r4, r0
 8001476:	000d      	movs	r5, r1
 8001478:	0016      	movs	r6, r2
    return HAL_BUSY;
 800147a:	2002      	movs	r0, #2
  if(huart->gState == HAL_UART_STATE_READY)
 800147c:	2b20      	cmp	r3, #32
 800147e:	d146      	bne.n	800150e <HAL_UART_Transmit+0xa6>
      return  HAL_ERROR;
 8001480:	3801      	subs	r0, #1
    if((pData == NULL ) || (Size == 0U))
 8001482:	2900      	cmp	r1, #0
 8001484:	d043      	beq.n	800150e <HAL_UART_Transmit+0xa6>
 8001486:	2a00      	cmp	r2, #0
 8001488:	d041      	beq.n	800150e <HAL_UART_Transmit+0xa6>
    if ((huart->Init.WordLength == UART_WORDLENGTH_9B) && (huart->Init.Parity == UART_PARITY_NONE))
 800148a:	2380      	movs	r3, #128	; 0x80
 800148c:	68a2      	ldr	r2, [r4, #8]
 800148e:	015b      	lsls	r3, r3, #5
 8001490:	429a      	cmp	r2, r3
 8001492:	d104      	bne.n	800149e <HAL_UART_Transmit+0x36>
 8001494:	6923      	ldr	r3, [r4, #16]
 8001496:	2b00      	cmp	r3, #0
 8001498:	d101      	bne.n	800149e <HAL_UART_Transmit+0x36>
      if((((uint32_t)pData)&1U) != 0U)
 800149a:	4201      	tst	r1, r0
 800149c:	d137      	bne.n	800150e <HAL_UART_Transmit+0xa6>
    __HAL_LOCK(huart);
 800149e:	0023      	movs	r3, r4
 80014a0:	3368      	adds	r3, #104	; 0x68
 80014a2:	781a      	ldrb	r2, [r3, #0]
    return HAL_BUSY;
 80014a4:	2002      	movs	r0, #2
    __HAL_LOCK(huart);
 80014a6:	2a01      	cmp	r2, #1
 80014a8:	d031      	beq.n	800150e <HAL_UART_Transmit+0xa6>
 80014aa:	2201      	movs	r2, #1
 80014ac:	701a      	strb	r2, [r3, #0]
    huart->ErrorCode = HAL_UART_ERROR_NONE;
 80014ae:	2300      	movs	r3, #0
 80014b0:	66e3      	str	r3, [r4, #108]	; 0x6c
    huart->gState = HAL_UART_STATE_BUSY_TX;
 80014b2:	3321      	adds	r3, #33	; 0x21
 80014b4:	703b      	strb	r3, [r7, #0]
    tickstart = HAL_GetTick();
 80014b6:	f7fe fef9 	bl	80002ac <HAL_GetTick>
    huart->TxXferSize = Size;
 80014ba:	0023      	movs	r3, r4
 80014bc:	3350      	adds	r3, #80	; 0x50
 80014be:	801e      	strh	r6, [r3, #0]
    huart->TxXferCount = Size;
 80014c0:	805e      	strh	r6, [r3, #2]
      if ((huart->Init.WordLength == UART_WORDLENGTH_9B) && (huart->Init.Parity == UART_PARITY_NONE))
 80014c2:	2680      	movs	r6, #128	; 0x80
    tickstart = HAL_GetTick();
 80014c4:	9002      	str	r0, [sp, #8]
      if ((huart->Init.WordLength == UART_WORDLENGTH_9B) && (huart->Init.Parity == UART_PARITY_NONE))
 80014c6:	0176      	lsls	r6, r6, #5
    while(huart->TxXferCount > 0)
 80014c8:	0021      	movs	r1, r4
 80014ca:	3152      	adds	r1, #82	; 0x52
 80014cc:	880a      	ldrh	r2, [r1, #0]
 80014ce:	b292      	uxth	r2, r2
 80014d0:	2a00      	cmp	r2, #0
 80014d2:	d10d      	bne.n	80014f0 <HAL_UART_Transmit+0x88>
    if(UART_WaitOnFlagUntilTimeout(huart, UART_FLAG_TC, RESET, tickstart, Timeout) != HAL_OK)
 80014d4:	9b03      	ldr	r3, [sp, #12]
 80014d6:	2140      	movs	r1, #64	; 0x40
 80014d8:	9300      	str	r3, [sp, #0]
 80014da:	0020      	movs	r0, r4
 80014dc:	9b02      	ldr	r3, [sp, #8]
 80014de:	f7ff ff91 	bl	8001404 <UART_WaitOnFlagUntilTimeout>
 80014e2:	2800      	cmp	r0, #0
 80014e4:	d112      	bne.n	800150c <HAL_UART_Transmit+0xa4>
    huart->gState = HAL_UART_STATE_READY;
 80014e6:	2320      	movs	r3, #32
    __HAL_UNLOCK(huart);
 80014e8:	3468      	adds	r4, #104	; 0x68
    huart->gState = HAL_UART_STATE_READY;
 80014ea:	703b      	strb	r3, [r7, #0]
    __HAL_UNLOCK(huart);
 80014ec:	7020      	strb	r0, [r4, #0]
    return HAL_OK;
 80014ee:	e00e      	b.n	800150e <HAL_UART_Transmit+0xa6>
      huart->TxXferCount--;
 80014f0:	880b      	ldrh	r3, [r1, #0]
      if(UART_WaitOnFlagUntilTimeout(huart, UART_FLAG_TXE, RESET, tickstart, Timeout) != HAL_OK)
 80014f2:	2200      	movs	r2, #0
      huart->TxXferCount--;
 80014f4:	3b01      	subs	r3, #1
 80014f6:	b29b      	uxth	r3, r3
 80014f8:	800b      	strh	r3, [r1, #0]
      if(UART_WaitOnFlagUntilTimeout(huart, UART_FLAG_TXE, RESET, tickstart, Timeout) != HAL_OK)
 80014fa:	9b03      	ldr	r3, [sp, #12]
 80014fc:	2180      	movs	r1, #128	; 0x80
 80014fe:	9300      	str	r3, [sp, #0]
 8001500:	0020      	movs	r0, r4
 8001502:	9b02      	ldr	r3, [sp, #8]
 8001504:	f7ff ff7e 	bl	8001404 <UART_WaitOnFlagUntilTimeout>
 8001508:	2800      	cmp	r0, #0
 800150a:	d002      	beq.n	8001512 <HAL_UART_Transmit+0xaa>
        return HAL_TIMEOUT;
 800150c:	2003      	movs	r0, #3
}
 800150e:	b005      	add	sp, #20
 8001510:	bdf0      	pop	{r4, r5, r6, r7, pc}
      if ((huart->Init.WordLength == UART_WORDLENGTH_9B) && (huart->Init.Parity == UART_PARITY_NONE))
 8001512:	68a3      	ldr	r3, [r4, #8]
 8001514:	6822      	ldr	r2, [r4, #0]
 8001516:	42b3      	cmp	r3, r6
 8001518:	d108      	bne.n	800152c <HAL_UART_Transmit+0xc4>
 800151a:	6923      	ldr	r3, [r4, #16]
 800151c:	2b00      	cmp	r3, #0
 800151e:	d105      	bne.n	800152c <HAL_UART_Transmit+0xc4>
        huart->Instance->TDR = (*tmp & (uint16_t)0x01FFU);
 8001520:	882b      	ldrh	r3, [r5, #0]
        pData += 2;
 8001522:	3502      	adds	r5, #2
        huart->Instance->TDR = (*tmp & (uint16_t)0x01FFU);
 8001524:	05db      	lsls	r3, r3, #23
 8001526:	0ddb      	lsrs	r3, r3, #23
 8001528:	8513      	strh	r3, [r2, #40]	; 0x28
        pData += 2;
 800152a:	e7cd      	b.n	80014c8 <HAL_UART_Transmit+0x60>
        huart->Instance->TDR = (*pData++ & (uint8_t)0xFFU);
 800152c:	782b      	ldrb	r3, [r5, #0]
 800152e:	3501      	adds	r5, #1
 8001530:	8513      	strh	r3, [r2, #40]	; 0x28
 8001532:	e7c9      	b.n	80014c8 <HAL_UART_Transmit+0x60>

08001534 <UART_Transmit_IT>:
HAL_StatusTypeDef UART_Transmit_IT(UART_HandleTypeDef *huart)
{
  uint16_t* tmp;

  /* Check that a Tx process is ongoing */
  if (huart->gState == HAL_UART_STATE_BUSY_TX)
 8001534:	0003      	movs	r3, r0
{
 8001536:	b530      	push	{r4, r5, lr}
  if (huart->gState == HAL_UART_STATE_BUSY_TX)
 8001538:	3369      	adds	r3, #105	; 0x69
 800153a:	781b      	ldrb	r3, [r3, #0]
{
 800153c:	0002      	movs	r2, r0
      return HAL_OK;
    }
  }
  else
  {
    return HAL_BUSY;
 800153e:	2002      	movs	r0, #2
  if (huart->gState == HAL_UART_STATE_BUSY_TX)
 8001540:	2b21      	cmp	r3, #33	; 0x21
 8001542:	d10f      	bne.n	8001564 <UART_Transmit_IT+0x30>
    if(huart->TxXferCount == 0U)
 8001544:	0014      	movs	r4, r2
 8001546:	3452      	adds	r4, #82	; 0x52
 8001548:	8823      	ldrh	r3, [r4, #0]
 800154a:	6811      	ldr	r1, [r2, #0]
 800154c:	b29b      	uxth	r3, r3
 800154e:	2b00      	cmp	r3, #0
 8001550:	d109      	bne.n	8001566 <UART_Transmit_IT+0x32>
      CLEAR_BIT(huart->Instance->CR1, USART_CR1_TXEIE);
 8001552:	680a      	ldr	r2, [r1, #0]
 8001554:	307e      	adds	r0, #126	; 0x7e
 8001556:	4382      	bics	r2, r0
 8001558:	600a      	str	r2, [r1, #0]
      SET_BIT(huart->Instance->CR1, USART_CR1_TCIE);
 800155a:	2240      	movs	r2, #64	; 0x40
 800155c:	6808      	ldr	r0, [r1, #0]
 800155e:	4302      	orrs	r2, r0
 8001560:	600a      	str	r2, [r1, #0]
      return HAL_OK;
 8001562:	2000      	movs	r0, #0
  }
}
 8001564:	bd30      	pop	{r4, r5, pc}
      if ((huart->Init.WordLength == UART_WORDLENGTH_9B) && (huart->Init.Parity == UART_PARITY_NONE))
 8001566:	2080      	movs	r0, #128	; 0x80
 8001568:	6895      	ldr	r5, [r2, #8]
 800156a:	0140      	lsls	r0, r0, #5
 800156c:	6cd3      	ldr	r3, [r2, #76]	; 0x4c
 800156e:	4285      	cmp	r5, r0
 8001570:	d10d      	bne.n	800158e <UART_Transmit_IT+0x5a>
 8001572:	6910      	ldr	r0, [r2, #16]
 8001574:	2800      	cmp	r0, #0
 8001576:	d10a      	bne.n	800158e <UART_Transmit_IT+0x5a>
        huart->Instance->TDR = (*tmp & (uint16_t)0x01FFU);
 8001578:	8818      	ldrh	r0, [r3, #0]
        huart->pTxBuffPtr += 2U;
 800157a:	3302      	adds	r3, #2
        huart->Instance->TDR = (*tmp & (uint16_t)0x01FFU);
 800157c:	05c0      	lsls	r0, r0, #23
 800157e:	0dc0      	lsrs	r0, r0, #23
 8001580:	8508      	strh	r0, [r1, #40]	; 0x28
        huart->pTxBuffPtr += 2U;
 8001582:	64d3      	str	r3, [r2, #76]	; 0x4c
      huart->TxXferCount--;
 8001584:	8823      	ldrh	r3, [r4, #0]
 8001586:	3b01      	subs	r3, #1
 8001588:	b29b      	uxth	r3, r3
 800158a:	8023      	strh	r3, [r4, #0]
 800158c:	e7e9      	b.n	8001562 <UART_Transmit_IT+0x2e>
        huart->Instance->TDR = (uint8_t)(*huart->pTxBuffPtr++ & (uint8_t)0xFFU);
 800158e:	1c58      	adds	r0, r3, #1
 8001590:	64d0      	str	r0, [r2, #76]	; 0x4c
 8001592:	781b      	ldrb	r3, [r3, #0]
 8001594:	850b      	strh	r3, [r1, #40]	; 0x28
 8001596:	e7f5      	b.n	8001584 <UART_Transmit_IT+0x50>

08001598 <UART_EndTransmit_IT>:
  * @retval HAL status
  */
HAL_StatusTypeDef UART_EndTransmit_IT(UART_HandleTypeDef *huart)
{
  /* Disable the UART Transmit Complete Interrupt */
  CLEAR_BIT(huart->Instance->CR1, USART_CR1_TCIE);
 8001598:	2140      	movs	r1, #64	; 0x40
 800159a:	6802      	ldr	r2, [r0, #0]
{
 800159c:	b510      	push	{r4, lr}
  CLEAR_BIT(huart->Instance->CR1, USART_CR1_TCIE);
 800159e:	6813      	ldr	r3, [r2, #0]
 80015a0:	438b      	bics	r3, r1
 80015a2:	6013      	str	r3, [r2, #0]

  /* Tx process is ended, restore huart->gState to Ready */
  huart->gState = HAL_UART_STATE_READY;
 80015a4:	0003      	movs	r3, r0
 80015a6:	2220      	movs	r2, #32
 80015a8:	3369      	adds	r3, #105	; 0x69
 80015aa:	701a      	strb	r2, [r3, #0]

  HAL_UART_TxCpltCallback(huart);
 80015ac:	f7ff fdde 	bl	800116c <HAL_UART_TxCpltCallback>

  return HAL_OK;
}
 80015b0:	2000      	movs	r0, #0
 80015b2:	bd10      	pop	{r4, pc}

080015b4 <UART_Receive_IT>:
  uint16_t* tmp;
  uint16_t  uhMask = huart->Mask;
  uint16_t  uhdata;

  /* Check that a Rx process is ongoing */
  if(huart->RxState == HAL_UART_STATE_BUSY_RX)
 80015b4:	0002      	movs	r2, r0
{
 80015b6:	b570      	push	{r4, r5, r6, lr}
  if(huart->RxState == HAL_UART_STATE_BUSY_RX)
 80015b8:	326a      	adds	r2, #106	; 0x6a
 80015ba:	7811      	ldrb	r1, [r2, #0]
 80015bc:	6803      	ldr	r3, [r0, #0]
 80015be:	2922      	cmp	r1, #34	; 0x22
 80015c0:	d12d      	bne.n	800161e <UART_Receive_IT+0x6a>
  uint16_t  uhMask = huart->Mask;
 80015c2:	0001      	movs	r1, r0
  {
    uhdata = (uint16_t) READ_REG(huart->Instance->RDR);
    if ((huart->Init.WordLength == UART_WORDLENGTH_9B) && (huart->Init.Parity == UART_PARITY_NONE))
 80015c4:	2480      	movs	r4, #128	; 0x80
  uint16_t  uhMask = huart->Mask;
 80015c6:	315c      	adds	r1, #92	; 0x5c
 80015c8:	880d      	ldrh	r5, [r1, #0]
    uhdata = (uint16_t) READ_REG(huart->Instance->RDR);
 80015ca:	8c99      	ldrh	r1, [r3, #36]	; 0x24
    if ((huart->Init.WordLength == UART_WORDLENGTH_9B) && (huart->Init.Parity == UART_PARITY_NONE))
 80015cc:	0164      	lsls	r4, r4, #5
 80015ce:	4029      	ands	r1, r5
 80015d0:	6885      	ldr	r5, [r0, #8]
 80015d2:	6d43      	ldr	r3, [r0, #84]	; 0x54
 80015d4:	42a5      	cmp	r5, r4
 80015d6:	d11e      	bne.n	8001616 <UART_Receive_IT+0x62>
 80015d8:	6904      	ldr	r4, [r0, #16]
 80015da:	2c00      	cmp	r4, #0
 80015dc:	d11b      	bne.n	8001616 <UART_Receive_IT+0x62>
    {
      tmp = (uint16_t*) huart->pRxBuffPtr ;
      *tmp = (uint16_t)(uhdata & uhMask);
 80015de:	8019      	strh	r1, [r3, #0]
      huart->pRxBuffPtr +=2U;
 80015e0:	3302      	adds	r3, #2
 80015e2:	6543      	str	r3, [r0, #84]	; 0x54
    else
    {
      *huart->pRxBuffPtr++ = (uint8_t)(uhdata & (uint8_t)uhMask);
    }

    if(--huart->RxXferCount == 0U)
 80015e4:	0001      	movs	r1, r0
      HAL_UART_RxCpltCallback(huart);

      return HAL_OK;
    }

    return HAL_OK;
 80015e6:	2400      	movs	r4, #0
    if(--huart->RxXferCount == 0U)
 80015e8:	315a      	adds	r1, #90	; 0x5a
 80015ea:	880b      	ldrh	r3, [r1, #0]
 80015ec:	3b01      	subs	r3, #1
 80015ee:	b29b      	uxth	r3, r3
 80015f0:	800b      	strh	r3, [r1, #0]
 80015f2:	42a3      	cmp	r3, r4
 80015f4:	d10d      	bne.n	8001612 <UART_Receive_IT+0x5e>
      CLEAR_BIT(huart->Instance->CR1, (USART_CR1_RXNEIE | USART_CR1_PEIE));
 80015f6:	6803      	ldr	r3, [r0, #0]
 80015f8:	4d0c      	ldr	r5, [pc, #48]	; (800162c <UART_Receive_IT+0x78>)
 80015fa:	6819      	ldr	r1, [r3, #0]
 80015fc:	4029      	ands	r1, r5
 80015fe:	6019      	str	r1, [r3, #0]
      CLEAR_BIT(huart->Instance->CR3, USART_CR3_EIE);
 8001600:	6899      	ldr	r1, [r3, #8]
 8001602:	3523      	adds	r5, #35	; 0x23
 8001604:	35ff      	adds	r5, #255	; 0xff
 8001606:	43a9      	bics	r1, r5
 8001608:	6099      	str	r1, [r3, #8]
      huart->RxState = HAL_UART_STATE_READY;
 800160a:	2320      	movs	r3, #32
 800160c:	7013      	strb	r3, [r2, #0]
      HAL_UART_RxCpltCallback(huart);
 800160e:	f001 faf9 	bl	8002c04 <HAL_UART_RxCpltCallback>
    /* Clear RXNE interrupt flag */
    __HAL_UART_SEND_REQ(huart, UART_RXDATA_FLUSH_REQUEST);

    return HAL_BUSY;
  }
}
 8001612:	0020      	movs	r0, r4
 8001614:	bd70      	pop	{r4, r5, r6, pc}
      *huart->pRxBuffPtr++ = (uint8_t)(uhdata & (uint8_t)uhMask);
 8001616:	1c5c      	adds	r4, r3, #1
 8001618:	6544      	str	r4, [r0, #84]	; 0x54
 800161a:	7019      	strb	r1, [r3, #0]
 800161c:	e7e2      	b.n	80015e4 <UART_Receive_IT+0x30>
    __HAL_UART_SEND_REQ(huart, UART_RXDATA_FLUSH_REQUEST);
 800161e:	2208      	movs	r2, #8
 8001620:	6999      	ldr	r1, [r3, #24]
    return HAL_BUSY;
 8001622:	2402      	movs	r4, #2
    __HAL_UART_SEND_REQ(huart, UART_RXDATA_FLUSH_REQUEST);
 8001624:	430a      	orrs	r2, r1
 8001626:	619a      	str	r2, [r3, #24]
    return HAL_BUSY;
 8001628:	e7f3      	b.n	8001612 <UART_Receive_IT+0x5e>
 800162a:	46c0      	nop			; (mov r8, r8)
 800162c:	fffffedf 	.word	0xfffffedf

08001630 <HAL_UART_IRQHandler>:
  errorflags = (isrflags & (uint32_t)(USART_ISR_PE | USART_ISR_FE | USART_ISR_ORE | USART_ISR_NE));
 8001630:	220f      	movs	r2, #15
{
 8001632:	b570      	push	{r4, r5, r6, lr}
 8001634:	0004      	movs	r4, r0
  uint32_t isrflags   = READ_REG(huart->Instance->ISR);
 8001636:	6800      	ldr	r0, [r0, #0]
 8001638:	69c3      	ldr	r3, [r0, #28]
  uint32_t cr1its     = READ_REG(huart->Instance->CR1);
 800163a:	6801      	ldr	r1, [r0, #0]
  errorflags = (isrflags & (uint32_t)(USART_ISR_PE | USART_ISR_FE | USART_ISR_ORE | USART_ISR_NE));
 800163c:	401a      	ands	r2, r3
  if (errorflags == RESET)
 800163e:	d108      	bne.n	8001652 <HAL_UART_IRQHandler+0x22>
    if(((isrflags & USART_ISR_RXNE) != RESET) && ((cr1its & USART_CR1_RXNEIE) != RESET))
 8001640:	2520      	movs	r5, #32
 8001642:	422b      	tst	r3, r5
 8001644:	d005      	beq.n	8001652 <HAL_UART_IRQHandler+0x22>
 8001646:	4229      	tst	r1, r5
 8001648:	d003      	beq.n	8001652 <HAL_UART_IRQHandler+0x22>
      UART_Receive_IT(huart);
 800164a:	0020      	movs	r0, r4
 800164c:	f7ff ffb2 	bl	80015b4 <UART_Receive_IT>
}
 8001650:	bd70      	pop	{r4, r5, r6, pc}
  cr3its = READ_REG(huart->Instance->CR3);
 8001652:	6885      	ldr	r5, [r0, #8]
  if(   (errorflags != RESET)
 8001654:	2a00      	cmp	r2, #0
 8001656:	d060      	beq.n	800171a <HAL_UART_IRQHandler+0xea>
     && (   ((cr3its & USART_CR3_EIE) != RESET)
 8001658:	2201      	movs	r2, #1
 800165a:	4015      	ands	r5, r2
 800165c:	d103      	bne.n	8001666 <HAL_UART_IRQHandler+0x36>
         || ((cr1its & (USART_CR1_RXNEIE | USART_CR1_PEIE)) != RESET)) )
 800165e:	2690      	movs	r6, #144	; 0x90
 8001660:	0076      	lsls	r6, r6, #1
 8001662:	4231      	tst	r1, r6
 8001664:	d059      	beq.n	800171a <HAL_UART_IRQHandler+0xea>
    if(((isrflags & USART_ISR_PE) != RESET) && ((cr1its & USART_CR1_PEIE) != RESET))
 8001666:	4213      	tst	r3, r2
 8001668:	d005      	beq.n	8001676 <HAL_UART_IRQHandler+0x46>
 800166a:	05ce      	lsls	r6, r1, #23
 800166c:	d503      	bpl.n	8001676 <HAL_UART_IRQHandler+0x46>
      __HAL_UART_CLEAR_IT(huart, UART_CLEAR_PEF);
 800166e:	6202      	str	r2, [r0, #32]
      huart->ErrorCode |= HAL_UART_ERROR_PE;
 8001670:	6ee6      	ldr	r6, [r4, #108]	; 0x6c
 8001672:	4332      	orrs	r2, r6
 8001674:	66e2      	str	r2, [r4, #108]	; 0x6c
    if(((isrflags & USART_ISR_FE) != RESET) && ((cr3its & USART_CR3_EIE) != RESET))
 8001676:	2202      	movs	r2, #2
 8001678:	4213      	tst	r3, r2
 800167a:	d006      	beq.n	800168a <HAL_UART_IRQHandler+0x5a>
 800167c:	2d00      	cmp	r5, #0
 800167e:	d004      	beq.n	800168a <HAL_UART_IRQHandler+0x5a>
      __HAL_UART_CLEAR_IT(huart, UART_CLEAR_FEF);
 8001680:	6202      	str	r2, [r0, #32]
      huart->ErrorCode |= HAL_UART_ERROR_FE;
 8001682:	6ee6      	ldr	r6, [r4, #108]	; 0x6c
 8001684:	1892      	adds	r2, r2, r2
 8001686:	4332      	orrs	r2, r6
 8001688:	66e2      	str	r2, [r4, #108]	; 0x6c
    if(((isrflags & USART_ISR_NE) != RESET) && ((cr3its & USART_CR3_EIE) != RESET))
 800168a:	2204      	movs	r2, #4
 800168c:	4213      	tst	r3, r2
 800168e:	d006      	beq.n	800169e <HAL_UART_IRQHandler+0x6e>
 8001690:	2d00      	cmp	r5, #0
 8001692:	d004      	beq.n	800169e <HAL_UART_IRQHandler+0x6e>
      __HAL_UART_CLEAR_IT(huart, UART_CLEAR_NEF);
 8001694:	6202      	str	r2, [r0, #32]
      huart->ErrorCode |= HAL_UART_ERROR_NE;
 8001696:	6ee6      	ldr	r6, [r4, #108]	; 0x6c
 8001698:	3a02      	subs	r2, #2
 800169a:	4332      	orrs	r2, r6
 800169c:	66e2      	str	r2, [r4, #108]	; 0x6c
    if(((isrflags & USART_ISR_ORE) != RESET) &&
 800169e:	071a      	lsls	r2, r3, #28
 80016a0:	d508      	bpl.n	80016b4 <HAL_UART_IRQHandler+0x84>
 80016a2:	068a      	lsls	r2, r1, #26
 80016a4:	d401      	bmi.n	80016aa <HAL_UART_IRQHandler+0x7a>
       (((cr1its & USART_CR1_RXNEIE) != RESET) || ((cr3its & USART_CR3_EIE) != RESET)))
 80016a6:	2d00      	cmp	r5, #0
 80016a8:	d004      	beq.n	80016b4 <HAL_UART_IRQHandler+0x84>
      __HAL_UART_CLEAR_IT(huart, UART_CLEAR_OREF);
 80016aa:	2208      	movs	r2, #8
 80016ac:	6202      	str	r2, [r0, #32]
      huart->ErrorCode |= HAL_UART_ERROR_ORE;
 80016ae:	6ee0      	ldr	r0, [r4, #108]	; 0x6c
 80016b0:	4302      	orrs	r2, r0
 80016b2:	66e2      	str	r2, [r4, #108]	; 0x6c
    if(huart->ErrorCode != HAL_UART_ERROR_NONE)
 80016b4:	6ee2      	ldr	r2, [r4, #108]	; 0x6c
 80016b6:	2a00      	cmp	r2, #0
 80016b8:	d0ca      	beq.n	8001650 <HAL_UART_IRQHandler+0x20>
      if(((isrflags & USART_ISR_RXNE) != RESET) && ((cr1its & USART_CR1_RXNEIE) != RESET))
 80016ba:	2220      	movs	r2, #32
 80016bc:	4213      	tst	r3, r2
 80016be:	d004      	beq.n	80016ca <HAL_UART_IRQHandler+0x9a>
 80016c0:	4211      	tst	r1, r2
 80016c2:	d002      	beq.n	80016ca <HAL_UART_IRQHandler+0x9a>
        UART_Receive_IT(huart);
 80016c4:	0020      	movs	r0, r4
 80016c6:	f7ff ff75 	bl	80015b4 <UART_Receive_IT>
      if (((huart->ErrorCode & HAL_UART_ERROR_ORE) != RESET) ||
 80016ca:	6ee3      	ldr	r3, [r4, #108]	; 0x6c
        UART_EndRxTransfer(huart);
 80016cc:	0020      	movs	r0, r4
      if (((huart->ErrorCode & HAL_UART_ERROR_ORE) != RESET) ||
 80016ce:	071b      	lsls	r3, r3, #28
 80016d0:	d404      	bmi.n	80016dc <HAL_UART_IRQHandler+0xac>
          (HAL_IS_BIT_SET(huart->Instance->CR3, USART_CR3_DMAR)))
 80016d2:	6823      	ldr	r3, [r4, #0]
 80016d4:	689d      	ldr	r5, [r3, #8]
 80016d6:	2340      	movs	r3, #64	; 0x40
 80016d8:	401d      	ands	r5, r3
      if (((huart->ErrorCode & HAL_UART_ERROR_ORE) != RESET) ||
 80016da:	d01a      	beq.n	8001712 <HAL_UART_IRQHandler+0xe2>
        UART_EndRxTransfer(huart);
 80016dc:	f7ff fce2 	bl	80010a4 <UART_EndRxTransfer>
        if (HAL_IS_BIT_SET(huart->Instance->CR3, USART_CR3_DMAR))
 80016e0:	2140      	movs	r1, #64	; 0x40
 80016e2:	6823      	ldr	r3, [r4, #0]
 80016e4:	689a      	ldr	r2, [r3, #8]
 80016e6:	420a      	tst	r2, r1
 80016e8:	d00f      	beq.n	800170a <HAL_UART_IRQHandler+0xda>
          CLEAR_BIT(huart->Instance->CR3, USART_CR3_DMAR);
 80016ea:	689a      	ldr	r2, [r3, #8]
          if(huart->hdmarx != NULL)
 80016ec:	6e60      	ldr	r0, [r4, #100]	; 0x64
          CLEAR_BIT(huart->Instance->CR3, USART_CR3_DMAR);
 80016ee:	438a      	bics	r2, r1
 80016f0:	609a      	str	r2, [r3, #8]
          if(huart->hdmarx != NULL)
 80016f2:	2800      	cmp	r0, #0
 80016f4:	d009      	beq.n	800170a <HAL_UART_IRQHandler+0xda>
            huart->hdmarx->XferAbortCallback = UART_DMAAbortOnError;
 80016f6:	4b13      	ldr	r3, [pc, #76]	; (8001744 <HAL_UART_IRQHandler+0x114>)
 80016f8:	6343      	str	r3, [r0, #52]	; 0x34
            if(HAL_DMA_Abort_IT(huart->hdmarx) != HAL_OK)
 80016fa:	f7fe fe7b 	bl	80003f4 <HAL_DMA_Abort_IT>
 80016fe:	2800      	cmp	r0, #0
 8001700:	d0a6      	beq.n	8001650 <HAL_UART_IRQHandler+0x20>
              huart->hdmarx->XferAbortCallback(huart->hdmarx);
 8001702:	6e60      	ldr	r0, [r4, #100]	; 0x64
 8001704:	6b43      	ldr	r3, [r0, #52]	; 0x34
 8001706:	4798      	blx	r3
 8001708:	e7a2      	b.n	8001650 <HAL_UART_IRQHandler+0x20>
            HAL_UART_ErrorCallback(huart);
 800170a:	0020      	movs	r0, r4
 800170c:	f7ff fd2f 	bl	800116e <HAL_UART_ErrorCallback>
 8001710:	e79e      	b.n	8001650 <HAL_UART_IRQHandler+0x20>
        HAL_UART_ErrorCallback(huart);
 8001712:	f7ff fd2c 	bl	800116e <HAL_UART_ErrorCallback>
        huart->ErrorCode = HAL_UART_ERROR_NONE;
 8001716:	66e5      	str	r5, [r4, #108]	; 0x6c
 8001718:	e79a      	b.n	8001650 <HAL_UART_IRQHandler+0x20>
  if(((isrflags & USART_ISR_TXE) != RESET) && ((cr1its & USART_CR1_TXEIE) != RESET))
 800171a:	2280      	movs	r2, #128	; 0x80
 800171c:	4213      	tst	r3, r2
 800171e:	d005      	beq.n	800172c <HAL_UART_IRQHandler+0xfc>
 8001720:	4211      	tst	r1, r2
 8001722:	d003      	beq.n	800172c <HAL_UART_IRQHandler+0xfc>
    UART_Transmit_IT(huart);
 8001724:	0020      	movs	r0, r4
 8001726:	f7ff ff05 	bl	8001534 <UART_Transmit_IT>
    return;
 800172a:	e791      	b.n	8001650 <HAL_UART_IRQHandler+0x20>
  if(((isrflags & USART_ISR_TC) != RESET) && ((cr1its & USART_CR1_TCIE) != RESET))
 800172c:	2240      	movs	r2, #64	; 0x40
 800172e:	4213      	tst	r3, r2
 8001730:	d100      	bne.n	8001734 <HAL_UART_IRQHandler+0x104>
 8001732:	e78d      	b.n	8001650 <HAL_UART_IRQHandler+0x20>
 8001734:	4211      	tst	r1, r2
 8001736:	d100      	bne.n	800173a <HAL_UART_IRQHandler+0x10a>
 8001738:	e78a      	b.n	8001650 <HAL_UART_IRQHandler+0x20>
    UART_EndTransmit_IT(huart);
 800173a:	0020      	movs	r0, r4
 800173c:	f7ff ff2c 	bl	8001598 <UART_EndTransmit_IT>
    return;
 8001740:	e786      	b.n	8001650 <HAL_UART_IRQHandler+0x20>
 8001742:	46c0      	nop			; (mov r8, r8)
 8001744:	08001171 	.word	0x08001171

08001748 <osKernelStart>:
* @param  argument      pointer that is passed to the thread function as start argument.
* @retval status code that indicates the execution status of the function
* @note   MUST REMAIN UNCHANGED: \b osKernelStart shall be consistent in every CMSIS-RTOS.
*/
osStatus osKernelStart (void)
{
 8001748:	b510      	push	{r4, lr}
  vTaskStartScheduler();
 800174a:	f000 fcfb 	bl	8002144 <vTaskStartScheduler>
  
  return osOK;
}
 800174e:	2000      	movs	r0, #0
 8001750:	bd10      	pop	{r4, pc}

08001752 <osSystickHandler>:
* @brief  Handles the tick increment
* @param  none.
* @retval none.
*/
void osSystickHandler(void)
{
 8001752:	b510      	push	{r4, lr}

#if (INCLUDE_xTaskGetSchedulerState  == 1 )
  if (xTaskGetSchedulerState() != taskSCHEDULER_NOT_STARTED)
 8001754:	f000 ff46 	bl	80025e4 <xTaskGetSchedulerState>
 8001758:	2801      	cmp	r0, #1
 800175a:	d001      	beq.n	8001760 <osSystickHandler+0xe>
  {
#endif  /* INCLUDE_xTaskGetSchedulerState */  
    xPortSysTickHandler();
 800175c:	f000 f8d2 	bl	8001904 <xPortSysTickHandler>
#if (INCLUDE_xTaskGetSchedulerState  == 1 )
  }
#endif  /* INCLUDE_xTaskGetSchedulerState */  
}
 8001760:	bd10      	pop	{r4, pc}

08001762 <vListInitialise>:
void vListInitialise( List_t * const pxList )
{
	/* The list structure contains a list item which is used to mark the
	end of the list.  To initialise the list the list end is inserted
	as the only list entry. */
	pxList->pxIndex = ( ListItem_t * ) &( pxList->xListEnd );			/*lint !e826 !e740 The mini list structure is used as the list end to save RAM.  This is checked and valid. */
 8001762:	0003      	movs	r3, r0

	/* The list end value is the highest possible value in the list to
	ensure it remains at the end of the list. */
	pxList->xListEnd.xItemValue = portMAX_DELAY;
 8001764:	2201      	movs	r2, #1
	pxList->pxIndex = ( ListItem_t * ) &( pxList->xListEnd );			/*lint !e826 !e740 The mini list structure is used as the list end to save RAM.  This is checked and valid. */
 8001766:	3308      	adds	r3, #8
 8001768:	6043      	str	r3, [r0, #4]

	/* The list end next and previous pointers point to itself so we know
	when the list is empty. */
	pxList->xListEnd.pxNext = ( ListItem_t * ) &( pxList->xListEnd );	/*lint !e826 !e740 The mini list structure is used as the list end to save RAM.  This is checked and valid. */
 800176a:	60c3      	str	r3, [r0, #12]
	pxList->xListEnd.pxPrevious = ( ListItem_t * ) &( pxList->xListEnd );/*lint !e826 !e740 The mini list structure is used as the list end to save RAM.  This is checked and valid. */
 800176c:	6103      	str	r3, [r0, #16]

	pxList->uxNumberOfItems = ( UBaseType_t ) 0U;
 800176e:	2300      	movs	r3, #0
	pxList->xListEnd.xItemValue = portMAX_DELAY;
 8001770:	4252      	negs	r2, r2
 8001772:	6082      	str	r2, [r0, #8]
	pxList->uxNumberOfItems = ( UBaseType_t ) 0U;
 8001774:	6003      	str	r3, [r0, #0]

	/* Write known values into the list if
	configUSE_LIST_DATA_INTEGRITY_CHECK_BYTES is set to 1. */
	listSET_LIST_INTEGRITY_CHECK_1_VALUE( pxList );
	listSET_LIST_INTEGRITY_CHECK_2_VALUE( pxList );
}
 8001776:	4770      	bx	lr

08001778 <vListInitialiseItem>:
/*-----------------------------------------------------------*/

void vListInitialiseItem( ListItem_t * const pxItem )
{
	/* Make sure the list item is not recorded as being on a list. */
	pxItem->pvContainer = NULL;
 8001778:	2300      	movs	r3, #0
 800177a:	6103      	str	r3, [r0, #16]

	/* Write known values into the list item if
	configUSE_LIST_DATA_INTEGRITY_CHECK_BYTES is set to 1. */
	listSET_FIRST_LIST_ITEM_INTEGRITY_CHECK_VALUE( pxItem );
	listSET_SECOND_LIST_ITEM_INTEGRITY_CHECK_VALUE( pxItem );
}
 800177c:	4770      	bx	lr

0800177e <vListInsertEnd>:
/*-----------------------------------------------------------*/

void vListInsertEnd( List_t * const pxList, ListItem_t * const pxNewListItem )
{
ListItem_t * const pxIndex = pxList->pxIndex;
 800177e:	6843      	ldr	r3, [r0, #4]

	/* Insert a new list item into pxList, but rather than sort the list,
	makes the new list item the last item to be removed by a call to
	listGET_OWNER_OF_NEXT_ENTRY(). */
	pxNewListItem->pxNext = pxIndex;
	pxNewListItem->pxPrevious = pxIndex->pxPrevious;
 8001780:	689a      	ldr	r2, [r3, #8]
	pxNewListItem->pxNext = pxIndex;
 8001782:	604b      	str	r3, [r1, #4]
	pxNewListItem->pxPrevious = pxIndex->pxPrevious;
 8001784:	608a      	str	r2, [r1, #8]

	/* Only used during decision coverage testing. */
	mtCOVERAGE_TEST_DELAY();

	pxIndex->pxPrevious->pxNext = pxNewListItem;
 8001786:	689a      	ldr	r2, [r3, #8]
 8001788:	6051      	str	r1, [r2, #4]
	pxIndex->pxPrevious = pxNewListItem;
 800178a:	6099      	str	r1, [r3, #8]

	/* Remember which list the item is in. */
	pxNewListItem->pvContainer = ( void * ) pxList;

	( pxList->uxNumberOfItems )++;
 800178c:	6803      	ldr	r3, [r0, #0]
	pxNewListItem->pvContainer = ( void * ) pxList;
 800178e:	6108      	str	r0, [r1, #16]
	( pxList->uxNumberOfItems )++;
 8001790:	3301      	adds	r3, #1
 8001792:	6003      	str	r3, [r0, #0]
}
 8001794:	4770      	bx	lr

08001796 <vListInsert>:
			4) Using a queue or semaphore before it has been initialised or
			   before the scheduler has been started (are interrupts firing
			   before vTaskStartScheduler() has been called?).
		**********************************************************************/

		for( pxIterator = ( ListItem_t * ) &( pxList->xListEnd ); pxIterator->pxNext->xItemValue <= xValueOfInsertion; pxIterator = pxIterator->pxNext ) /*lint !e826 !e740 The mini list structure is used as the list end to save RAM.  This is checked and valid. */
 8001796:	0003      	movs	r3, r0
const TickType_t xValueOfInsertion = pxNewListItem->xItemValue;
 8001798:	680a      	ldr	r2, [r1, #0]
{
 800179a:	b530      	push	{r4, r5, lr}
		for( pxIterator = ( ListItem_t * ) &( pxList->xListEnd ); pxIterator->pxNext->xItemValue <= xValueOfInsertion; pxIterator = pxIterator->pxNext ) /*lint !e826 !e740 The mini list structure is used as the list end to save RAM.  This is checked and valid. */
 800179c:	3308      	adds	r3, #8
	if( xValueOfInsertion == portMAX_DELAY )
 800179e:	1c54      	adds	r4, r2, #1
 80017a0:	d10b      	bne.n	80017ba <vListInsert+0x24>
		pxIterator = pxList->xListEnd.pxPrevious;
 80017a2:	6903      	ldr	r3, [r0, #16]
			/* There is nothing to do here, just iterating to the wanted
			insertion position. */
		}
	}

	pxNewListItem->pxNext = pxIterator->pxNext;
 80017a4:	685a      	ldr	r2, [r3, #4]
 80017a6:	604a      	str	r2, [r1, #4]
	pxNewListItem->pxNext->pxPrevious = pxNewListItem;
 80017a8:	6091      	str	r1, [r2, #8]
	pxNewListItem->pxPrevious = pxIterator;
 80017aa:	608b      	str	r3, [r1, #8]
	pxIterator->pxNext = pxNewListItem;
 80017ac:	6059      	str	r1, [r3, #4]

	/* Remember which list the item is in.  This allows fast removal of the
	item later. */
	pxNewListItem->pvContainer = ( void * ) pxList;

	( pxList->uxNumberOfItems )++;
 80017ae:	6803      	ldr	r3, [r0, #0]
	pxNewListItem->pvContainer = ( void * ) pxList;
 80017b0:	6108      	str	r0, [r1, #16]
	( pxList->uxNumberOfItems )++;
 80017b2:	3301      	adds	r3, #1
 80017b4:	6003      	str	r3, [r0, #0]
}
 80017b6:	bd30      	pop	{r4, r5, pc}
 80017b8:	0023      	movs	r3, r4
		for( pxIterator = ( ListItem_t * ) &( pxList->xListEnd ); pxIterator->pxNext->xItemValue <= xValueOfInsertion; pxIterator = pxIterator->pxNext ) /*lint !e826 !e740 The mini list structure is used as the list end to save RAM.  This is checked and valid. */
 80017ba:	685c      	ldr	r4, [r3, #4]
 80017bc:	6825      	ldr	r5, [r4, #0]
 80017be:	42aa      	cmp	r2, r5
 80017c0:	d2fa      	bcs.n	80017b8 <vListInsert+0x22>
 80017c2:	e7ef      	b.n	80017a4 <vListInsert+0xe>

080017c4 <uxListRemove>:
{
/* The list item knows which list it is in.  Obtain the list from the list
item. */
List_t * const pxList = ( List_t * ) pxItemToRemove->pvContainer;

	pxItemToRemove->pxNext->pxPrevious = pxItemToRemove->pxPrevious;
 80017c4:	6841      	ldr	r1, [r0, #4]
 80017c6:	6882      	ldr	r2, [r0, #8]
List_t * const pxList = ( List_t * ) pxItemToRemove->pvContainer;
 80017c8:	6903      	ldr	r3, [r0, #16]
	pxItemToRemove->pxNext->pxPrevious = pxItemToRemove->pxPrevious;
 80017ca:	608a      	str	r2, [r1, #8]
	pxItemToRemove->pxPrevious->pxNext = pxItemToRemove->pxNext;
 80017cc:	6882      	ldr	r2, [r0, #8]
 80017ce:	6051      	str	r1, [r2, #4]

	/* Only used during decision coverage testing. */
	mtCOVERAGE_TEST_DELAY();

	/* Make sure the index is left pointing to a valid item. */
	if( pxList->pxIndex == pxItemToRemove )
 80017d0:	6859      	ldr	r1, [r3, #4]
 80017d2:	4288      	cmp	r0, r1
 80017d4:	d100      	bne.n	80017d8 <uxListRemove+0x14>
	{
		pxList->pxIndex = pxItemToRemove->pxPrevious;
 80017d6:	605a      	str	r2, [r3, #4]
	else
	{
		mtCOVERAGE_TEST_MARKER();
	}

	pxItemToRemove->pvContainer = NULL;
 80017d8:	2200      	movs	r2, #0
 80017da:	6102      	str	r2, [r0, #16]
	( pxList->uxNumberOfItems )--;
 80017dc:	681a      	ldr	r2, [r3, #0]
 80017de:	1e50      	subs	r0, r2, #1
 80017e0:	6018      	str	r0, [r3, #0]

	return pxList->uxNumberOfItems;
}
 80017e2:	4770      	bx	lr

080017e4 <prvTaskExitError>:
	its caller as there is nothing to return to.  If a task wants to exit it
	should instead call vTaskDelete( NULL ).

	Artificially force an assert() to be triggered if configASSERT() is
	defined, then stop here so application writers can catch the error. */
	configASSERT( uxCriticalNesting == ~0UL );
 80017e4:	4b03      	ldr	r3, [pc, #12]	; (80017f4 <prvTaskExitError+0x10>)
 80017e6:	681b      	ldr	r3, [r3, #0]
 80017e8:	3301      	adds	r3, #1
 80017ea:	d001      	beq.n	80017f0 <prvTaskExitError+0xc>
 80017ec:	b672      	cpsid	i
 80017ee:	e7fe      	b.n	80017ee <prvTaskExitError+0xa>
	portDISABLE_INTERRUPTS();
 80017f0:	b672      	cpsid	i
 80017f2:	e7fe      	b.n	80017f2 <prvTaskExitError+0xe>
 80017f4:	20000000 	.word	0x20000000
	...

08001800 <vPortStartFirstTask>:
void vPortStartFirstTask( void )
{
	/* The MSP stack is not reset as, unlike on M3/4 parts, there is no vector
	table offset register that can be used to locate the initial stack value.
	Not all M0 parts have the application vector table at address 0. */
	__asm volatile(
 8001800:	4a0b      	ldr	r2, [pc, #44]	; (8001830 <pxCurrentTCBConst2>)
 8001802:	6813      	ldr	r3, [r2, #0]
 8001804:	6818      	ldr	r0, [r3, #0]
 8001806:	3020      	adds	r0, #32
 8001808:	f380 8809 	msr	PSP, r0
 800180c:	2002      	movs	r0, #2
 800180e:	f380 8814 	msr	CONTROL, r0
 8001812:	f3bf 8f6f 	isb	sy
 8001816:	bc3f      	pop	{r0, r1, r2, r3, r4, r5}
 8001818:	46ae      	mov	lr, r5
 800181a:	bc08      	pop	{r3}
 800181c:	bc04      	pop	{r2}
 800181e:	b662      	cpsie	i
 8001820:	4718      	bx	r3
 8001822:	46c0      	nop			; (mov r8, r8)
 8001824:	46c0      	nop			; (mov r8, r8)
 8001826:	46c0      	nop			; (mov r8, r8)
 8001828:	46c0      	nop			; (mov r8, r8)
 800182a:	46c0      	nop			; (mov r8, r8)
 800182c:	46c0      	nop			; (mov r8, r8)
 800182e:	46c0      	nop			; (mov r8, r8)

08001830 <pxCurrentTCBConst2>:
 8001830:	20000c3c 	.word	0x20000c3c

08001834 <pxPortInitialiseStack>:
{
 8001834:	b510      	push	{r4, lr}
	*pxTopOfStack = portINITIAL_XPSR;	/* xPSR */
 8001836:	2480      	movs	r4, #128	; 0x80
 8001838:	1f03      	subs	r3, r0, #4
 800183a:	0464      	lsls	r4, r4, #17
 800183c:	601c      	str	r4, [r3, #0]
	*pxTopOfStack = ( StackType_t ) pxCode;	/* PC */
 800183e:	3b04      	subs	r3, #4
 8001840:	6019      	str	r1, [r3, #0]
	*pxTopOfStack = ( StackType_t ) portTASK_RETURN_ADDRESS;	/* LR */
 8001842:	4903      	ldr	r1, [pc, #12]	; (8001850 <pxPortInitialiseStack+0x1c>)
 8001844:	3b04      	subs	r3, #4
 8001846:	6019      	str	r1, [r3, #0]
	*pxTopOfStack = ( StackType_t ) pvParameters;	/* R0 */
 8001848:	3b14      	subs	r3, #20
	pxTopOfStack -= 8; /* R11..R4. */
 800184a:	3840      	subs	r0, #64	; 0x40
	*pxTopOfStack = ( StackType_t ) pvParameters;	/* R0 */
 800184c:	601a      	str	r2, [r3, #0]
}
 800184e:	bd10      	pop	{r4, pc}
 8001850:	080017e5 	.word	0x080017e5

08001854 <SVC_Handler>:
}
 8001854:	4770      	bx	lr
	...

08001858 <vPortYield>:
/*-----------------------------------------------------------*/

void vPortYield( void )
{
	/* Set a PendSV to request a context switch. */
	*( portNVIC_INT_CTRL ) = portNVIC_PENDSVSET;
 8001858:	2280      	movs	r2, #128	; 0x80
 800185a:	4b04      	ldr	r3, [pc, #16]	; (800186c <vPortYield+0x14>)
 800185c:	0552      	lsls	r2, r2, #21
 800185e:	601a      	str	r2, [r3, #0]

	/* Barriers are normally not required but do ensure the code is completely
	within the specified behaviour for the architecture. */
	__asm volatile( "dsb" );
 8001860:	f3bf 8f4f 	dsb	sy
	__asm volatile( "isb" );
 8001864:	f3bf 8f6f 	isb	sy
}
 8001868:	4770      	bx	lr
 800186a:	46c0      	nop			; (mov r8, r8)
 800186c:	e000ed04 	.word	0xe000ed04

08001870 <vPortEnterCritical>:
/*-----------------------------------------------------------*/

void vPortEnterCritical( void )
{
    portDISABLE_INTERRUPTS();
 8001870:	b672      	cpsid	i
    uxCriticalNesting++;
 8001872:	4a04      	ldr	r2, [pc, #16]	; (8001884 <vPortEnterCritical+0x14>)
 8001874:	6813      	ldr	r3, [r2, #0]
 8001876:	3301      	adds	r3, #1
 8001878:	6013      	str	r3, [r2, #0]
	__asm volatile( "dsb" );
 800187a:	f3bf 8f4f 	dsb	sy
	__asm volatile( "isb" );
 800187e:	f3bf 8f6f 	isb	sy
}
 8001882:	4770      	bx	lr
 8001884:	20000000 	.word	0x20000000

08001888 <vPortExitCritical>:
/*-----------------------------------------------------------*/

void vPortExitCritical( void )
{
	configASSERT( uxCriticalNesting );
 8001888:	4a05      	ldr	r2, [pc, #20]	; (80018a0 <vPortExitCritical+0x18>)
 800188a:	6813      	ldr	r3, [r2, #0]
 800188c:	2b00      	cmp	r3, #0
 800188e:	d101      	bne.n	8001894 <vPortExitCritical+0xc>
 8001890:	b672      	cpsid	i
 8001892:	e7fe      	b.n	8001892 <vPortExitCritical+0xa>
    uxCriticalNesting--;
 8001894:	3b01      	subs	r3, #1
 8001896:	6013      	str	r3, [r2, #0]
    if( uxCriticalNesting == 0 )
 8001898:	2b00      	cmp	r3, #0
 800189a:	d100      	bne.n	800189e <vPortExitCritical+0x16>
    {
        portENABLE_INTERRUPTS();
 800189c:	b662      	cpsie	i
    }
}
 800189e:	4770      	bx	lr
 80018a0:	20000000 	.word	0x20000000

080018a4 <ulSetInterruptMaskFromISR>:
/*-----------------------------------------------------------*/

uint32_t ulSetInterruptMaskFromISR( void )
{
	__asm volatile(
 80018a4:	f3ef 8010 	mrs	r0, PRIMASK
 80018a8:	b672      	cpsid	i
 80018aa:	4770      	bx	lr
					" bx lr				  "
				  );

	/* To avoid compiler warnings.  This line will never be reached. */
	return 0;
}
 80018ac:	2000      	movs	r0, #0

080018ae <vClearInterruptMaskFromISR>:
/*-----------------------------------------------------------*/

void vClearInterruptMaskFromISR( uint32_t ulMask )
{
	__asm volatile(
 80018ae:	f380 8810 	msr	PRIMASK, r0
 80018b2:	4770      	bx	lr
	...

080018c0 <PendSV_Handler>:

void xPortPendSVHandler( void )
{
	/* This is a naked function. */

	__asm volatile
 80018c0:	f3ef 8009 	mrs	r0, PSP
 80018c4:	4b0e      	ldr	r3, [pc, #56]	; (8001900 <pxCurrentTCBConst>)
 80018c6:	681a      	ldr	r2, [r3, #0]
 80018c8:	3820      	subs	r0, #32
 80018ca:	6010      	str	r0, [r2, #0]
 80018cc:	c0f0      	stmia	r0!, {r4, r5, r6, r7}
 80018ce:	4644      	mov	r4, r8
 80018d0:	464d      	mov	r5, r9
 80018d2:	4656      	mov	r6, sl
 80018d4:	465f      	mov	r7, fp
 80018d6:	c0f0      	stmia	r0!, {r4, r5, r6, r7}
 80018d8:	b508      	push	{r3, lr}
 80018da:	b672      	cpsid	i
 80018dc:	f000 fdb8 	bl	8002450 <vTaskSwitchContext>
 80018e0:	b662      	cpsie	i
 80018e2:	bc0c      	pop	{r2, r3}
 80018e4:	6811      	ldr	r1, [r2, #0]
 80018e6:	6808      	ldr	r0, [r1, #0]
 80018e8:	3010      	adds	r0, #16
 80018ea:	c8f0      	ldmia	r0!, {r4, r5, r6, r7}
 80018ec:	46a0      	mov	r8, r4
 80018ee:	46a9      	mov	r9, r5
 80018f0:	46b2      	mov	sl, r6
 80018f2:	46bb      	mov	fp, r7
 80018f4:	f380 8809 	msr	PSP, r0
 80018f8:	3820      	subs	r0, #32
 80018fa:	c8f0      	ldmia	r0!, {r4, r5, r6, r7}
 80018fc:	4718      	bx	r3
 80018fe:	46c0      	nop			; (mov r8, r8)

08001900 <pxCurrentTCBConst>:
 8001900:	20000c3c 	.word	0x20000c3c

08001904 <xPortSysTickHandler>:
	);
}
/*-----------------------------------------------------------*/

void xPortSysTickHandler( void )
{
 8001904:	b510      	push	{r4, lr}
uint32_t ulPreviousMask;

	ulPreviousMask = portSET_INTERRUPT_MASK_FROM_ISR();
 8001906:	f7ff ffcd 	bl	80018a4 <ulSetInterruptMaskFromISR>
 800190a:	0004      	movs	r4, r0
	{
		/* Increment the RTOS tick. */
		if( xTaskIncrementTick() != pdFALSE )
 800190c:	f000 fc52 	bl	80021b4 <xTaskIncrementTick>
 8001910:	2800      	cmp	r0, #0
 8001912:	d003      	beq.n	800191c <xPortSysTickHandler+0x18>
		{
			/* Pend a context switch. */
			*(portNVIC_INT_CTRL) = portNVIC_PENDSVSET;
 8001914:	2280      	movs	r2, #128	; 0x80
 8001916:	4b03      	ldr	r3, [pc, #12]	; (8001924 <xPortSysTickHandler+0x20>)
 8001918:	0552      	lsls	r2, r2, #21
 800191a:	601a      	str	r2, [r3, #0]
		}
	}
	portCLEAR_INTERRUPT_MASK_FROM_ISR( ulPreviousMask );
 800191c:	0020      	movs	r0, r4
 800191e:	f7ff ffc6 	bl	80018ae <vClearInterruptMaskFromISR>
}
 8001922:	bd10      	pop	{r4, pc}
 8001924:	e000ed04 	.word	0xe000ed04

08001928 <vPortSetupTimerInterrupt>:
		ulStoppedTimerCompensation = portMISSED_COUNTS_FACTOR / ( configCPU_CLOCK_HZ / configSYSTICK_CLOCK_HZ );
	}
	#endif /* configUSE_TICKLESS_IDLE */
	/* Configure SysTick to interrupt at the requested rate. */

	portNVIC_SYSTICK_LOAD = ( configCPU_CLOCK_HZ / configTICK_RATE_HZ ) - 1UL;
 8001928:	21fa      	movs	r1, #250	; 0xfa
 800192a:	4b06      	ldr	r3, [pc, #24]	; (8001944 <vPortSetupTimerInterrupt+0x1c>)
{
 800192c:	b510      	push	{r4, lr}
	portNVIC_SYSTICK_LOAD = ( configCPU_CLOCK_HZ / configTICK_RATE_HZ ) - 1UL;
 800192e:	6818      	ldr	r0, [r3, #0]
 8001930:	0089      	lsls	r1, r1, #2
 8001932:	f7fe fc05 	bl	8000140 <__udivsi3>
	portNVIC_SYSTICK_CTRL = portNVIC_SYSTICK_CLK | portNVIC_SYSTICK_INT | portNVIC_SYSTICK_ENABLE;
 8001936:	2207      	movs	r2, #7
	portNVIC_SYSTICK_LOAD = ( configCPU_CLOCK_HZ / configTICK_RATE_HZ ) - 1UL;
 8001938:	4b03      	ldr	r3, [pc, #12]	; (8001948 <vPortSetupTimerInterrupt+0x20>)
 800193a:	3801      	subs	r0, #1
 800193c:	6018      	str	r0, [r3, #0]
	portNVIC_SYSTICK_CTRL = portNVIC_SYSTICK_CLK | portNVIC_SYSTICK_INT | portNVIC_SYSTICK_ENABLE;
 800193e:	4b03      	ldr	r3, [pc, #12]	; (800194c <vPortSetupTimerInterrupt+0x24>)
 8001940:	601a      	str	r2, [r3, #0]
}
 8001942:	bd10      	pop	{r4, pc}
 8001944:	20000004 	.word	0x20000004
 8001948:	e000e014 	.word	0xe000e014
 800194c:	e000e010 	.word	0xe000e010

08001950 <xPortStartScheduler>:
	*(portNVIC_SYSPRI2) |= portNVIC_PENDSV_PRI;
 8001950:	22ff      	movs	r2, #255	; 0xff
 8001952:	4b0a      	ldr	r3, [pc, #40]	; (800197c <xPortStartScheduler+0x2c>)
 8001954:	0412      	lsls	r2, r2, #16
 8001956:	6819      	ldr	r1, [r3, #0]
{
 8001958:	b510      	push	{r4, lr}
	*(portNVIC_SYSPRI2) |= portNVIC_PENDSV_PRI;
 800195a:	430a      	orrs	r2, r1
 800195c:	601a      	str	r2, [r3, #0]
	*(portNVIC_SYSPRI2) |= portNVIC_SYSTICK_PRI;
 800195e:	22ff      	movs	r2, #255	; 0xff
 8001960:	6819      	ldr	r1, [r3, #0]
 8001962:	0612      	lsls	r2, r2, #24
 8001964:	430a      	orrs	r2, r1
 8001966:	601a      	str	r2, [r3, #0]
	vPortSetupTimerInterrupt();
 8001968:	f7ff ffde 	bl	8001928 <vPortSetupTimerInterrupt>
	uxCriticalNesting = 0;
 800196c:	2200      	movs	r2, #0
 800196e:	4b04      	ldr	r3, [pc, #16]	; (8001980 <xPortStartScheduler+0x30>)
 8001970:	601a      	str	r2, [r3, #0]
	vPortStartFirstTask();
 8001972:	f7ff ff45 	bl	8001800 <vPortStartFirstTask>
	prvTaskExitError();
 8001976:	f7ff ff35 	bl	80017e4 <prvTaskExitError>
 800197a:	46c0      	nop			; (mov r8, r8)
 800197c:	e000ed20 	.word	0xe000ed20
 8001980:	20000000 	.word	0x20000000

08001984 <prvInsertBlockIntoFreeList>:
	xBlockAllocatedBit = ( ( size_t ) 1 ) << ( ( sizeof( size_t ) * heapBITS_PER_BYTE ) - 1 );
}
/*-----------------------------------------------------------*/

static void prvInsertBlockIntoFreeList( BlockLink_t *pxBlockToInsert )
{
 8001984:	b510      	push	{r4, lr}
BlockLink_t *pxIterator;
uint8_t *puc;

	/* Iterate through the list until a block is found that has a higher address
	than the block being inserted. */
	for( pxIterator = &xStart; pxIterator->pxNextFreeBlock < pxBlockToInsert; pxIterator = pxIterator->pxNextFreeBlock )
 8001986:	4b0f      	ldr	r3, [pc, #60]	; (80019c4 <prvInsertBlockIntoFreeList+0x40>)
 8001988:	681a      	ldr	r2, [r3, #0]
 800198a:	4282      	cmp	r2, r0
 800198c:	d318      	bcc.n	80019c0 <prvInsertBlockIntoFreeList+0x3c>
	}

	/* Do the block being inserted, and the block it is being inserted after
	make a contiguous block of memory? */
	puc = ( uint8_t * ) pxIterator;
	if( ( puc + pxIterator->xBlockSize ) == ( uint8_t * ) pxBlockToInsert )
 800198e:	685c      	ldr	r4, [r3, #4]
 8001990:	1919      	adds	r1, r3, r4
 8001992:	4288      	cmp	r0, r1
 8001994:	d103      	bne.n	800199e <prvInsertBlockIntoFreeList+0x1a>
	{
		pxIterator->xBlockSize += pxBlockToInsert->xBlockSize;
 8001996:	6841      	ldr	r1, [r0, #4]
 8001998:	0018      	movs	r0, r3
 800199a:	1909      	adds	r1, r1, r4
 800199c:	6059      	str	r1, [r3, #4]
	}

	/* Do the block being inserted, and the block it is being inserted before
	make a contiguous block of memory? */
	puc = ( uint8_t * ) pxBlockToInsert;
	if( ( puc + pxBlockToInsert->xBlockSize ) == ( uint8_t * ) pxIterator->pxNextFreeBlock )
 800199e:	6841      	ldr	r1, [r0, #4]
 80019a0:	1844      	adds	r4, r0, r1
 80019a2:	42a2      	cmp	r2, r4
 80019a4:	d107      	bne.n	80019b6 <prvInsertBlockIntoFreeList+0x32>
	{
		if( pxIterator->pxNextFreeBlock != pxEnd )
 80019a6:	4c08      	ldr	r4, [pc, #32]	; (80019c8 <prvInsertBlockIntoFreeList+0x44>)
 80019a8:	6824      	ldr	r4, [r4, #0]
 80019aa:	42a2      	cmp	r2, r4
 80019ac:	d003      	beq.n	80019b6 <prvInsertBlockIntoFreeList+0x32>
		{
			/* Form one big block from the two blocks. */
			pxBlockToInsert->xBlockSize += pxIterator->pxNextFreeBlock->xBlockSize;
 80019ae:	6854      	ldr	r4, [r2, #4]
			pxBlockToInsert->pxNextFreeBlock = pxIterator->pxNextFreeBlock->pxNextFreeBlock;
 80019b0:	6812      	ldr	r2, [r2, #0]
			pxBlockToInsert->xBlockSize += pxIterator->pxNextFreeBlock->xBlockSize;
 80019b2:	1861      	adds	r1, r4, r1
 80019b4:	6041      	str	r1, [r0, #4]
			pxBlockToInsert->pxNextFreeBlock = pxEnd;
		}
	}
	else
	{
		pxBlockToInsert->pxNextFreeBlock = pxIterator->pxNextFreeBlock;
 80019b6:	6002      	str	r2, [r0, #0]

	/* If the block being inserted plugged a gab, so was merged with the block
	before and the block after, then it's pxNextFreeBlock pointer will have
	already been set, and should not be set here as that would make it point
	to itself. */
	if( pxIterator != pxBlockToInsert )
 80019b8:	4298      	cmp	r0, r3
 80019ba:	d000      	beq.n	80019be <prvInsertBlockIntoFreeList+0x3a>
	{
		pxIterator->pxNextFreeBlock = pxBlockToInsert;
 80019bc:	6018      	str	r0, [r3, #0]
	}
	else
	{
		mtCOVERAGE_TEST_MARKER();
	}
}
 80019be:	bd10      	pop	{r4, pc}
 80019c0:	0013      	movs	r3, r2
 80019c2:	e7e1      	b.n	8001988 <prvInsertBlockIntoFreeList+0x4>
 80019c4:	20000c34 	.word	0x20000c34
 80019c8:	20000024 	.word	0x20000024

080019cc <pvPortMalloc>:
{
 80019cc:	b5f8      	push	{r3, r4, r5, r6, r7, lr}
 80019ce:	0004      	movs	r4, r0
	vTaskSuspendAll();
 80019d0:	f000 fbe2 	bl	8002198 <vTaskSuspendAll>
		if( pxEnd == NULL )
 80019d4:	4a38      	ldr	r2, [pc, #224]	; (8001ab8 <pvPortMalloc+0xec>)
 80019d6:	4839      	ldr	r0, [pc, #228]	; (8001abc <pvPortMalloc+0xf0>)
 80019d8:	6813      	ldr	r3, [r2, #0]
 80019da:	2b00      	cmp	r3, #0
 80019dc:	d11e      	bne.n	8001a1c <pvPortMalloc+0x50>
	uxAddress = ( size_t ) ucHeap;
 80019de:	4938      	ldr	r1, [pc, #224]	; (8001ac0 <pvPortMalloc+0xf4>)
	if( ( uxAddress & portBYTE_ALIGNMENT_MASK ) != 0 )
 80019e0:	3307      	adds	r3, #7
 80019e2:	4219      	tst	r1, r3
 80019e4:	d036      	beq.n	8001a54 <pvPortMalloc+0x88>
		uxAddress += ( portBYTE_ALIGNMENT - 1 );
 80019e6:	18cd      	adds	r5, r1, r3
		uxAddress &= ~( ( size_t ) portBYTE_ALIGNMENT_MASK );
 80019e8:	439d      	bics	r5, r3
		xTotalHeapSize -= uxAddress - ( size_t ) ucHeap;
 80019ea:	23c0      	movs	r3, #192	; 0xc0
 80019ec:	011b      	lsls	r3, r3, #4
 80019ee:	18c9      	adds	r1, r1, r3
 80019f0:	1b4b      	subs	r3, r1, r5
		uxAddress &= ~( ( size_t ) portBYTE_ALIGNMENT_MASK );
 80019f2:	0029      	movs	r1, r5
	xStart.xBlockSize = ( size_t ) 0;
 80019f4:	2500      	movs	r5, #0
	xStart.pxNextFreeBlock = ( void * ) pucAlignedHeap;
 80019f6:	4e33      	ldr	r6, [pc, #204]	; (8001ac4 <pvPortMalloc+0xf8>)
	uxAddress = ( ( size_t ) pucAlignedHeap ) + xTotalHeapSize;
 80019f8:	18cb      	adds	r3, r1, r3
	xStart.xBlockSize = ( size_t ) 0;
 80019fa:	6075      	str	r5, [r6, #4]
	xStart.pxNextFreeBlock = ( void * ) pucAlignedHeap;
 80019fc:	6031      	str	r1, [r6, #0]
	uxAddress &= ~( ( size_t ) portBYTE_ALIGNMENT_MASK );
 80019fe:	2607      	movs	r6, #7
	uxAddress -= xHeapStructSize;
 8001a00:	3b08      	subs	r3, #8
	uxAddress &= ~( ( size_t ) portBYTE_ALIGNMENT_MASK );
 8001a02:	43b3      	bics	r3, r6
	pxEnd->pxNextFreeBlock = NULL;
 8001a04:	601d      	str	r5, [r3, #0]
	pxEnd->xBlockSize = 0;
 8001a06:	605d      	str	r5, [r3, #4]
	pxFirstFreeBlock->xBlockSize = uxAddress - ( size_t ) pxFirstFreeBlock;
 8001a08:	1a5d      	subs	r5, r3, r1
	pxEnd = ( void * ) uxAddress;
 8001a0a:	6013      	str	r3, [r2, #0]
	pxFirstFreeBlock->pxNextFreeBlock = pxEnd;
 8001a0c:	c128      	stmia	r1!, {r3, r5}
	xMinimumEverFreeBytesRemaining = pxFirstFreeBlock->xBlockSize;
 8001a0e:	4b2e      	ldr	r3, [pc, #184]	; (8001ac8 <pvPortMalloc+0xfc>)
 8001a10:	601d      	str	r5, [r3, #0]
	xFreeBytesRemaining = pxFirstFreeBlock->xBlockSize;
 8001a12:	4b2e      	ldr	r3, [pc, #184]	; (8001acc <pvPortMalloc+0x100>)
 8001a14:	601d      	str	r5, [r3, #0]
	xBlockAllocatedBit = ( ( size_t ) 1 ) << ( ( sizeof( size_t ) * heapBITS_PER_BYTE ) - 1 );
 8001a16:	2380      	movs	r3, #128	; 0x80
 8001a18:	061b      	lsls	r3, r3, #24
 8001a1a:	6003      	str	r3, [r0, #0]
		if( ( xWantedSize & xBlockAllocatedBit ) == 0 )
 8001a1c:	6806      	ldr	r6, [r0, #0]
 8001a1e:	4234      	tst	r4, r6
 8001a20:	d116      	bne.n	8001a50 <pvPortMalloc+0x84>
			if( xWantedSize > 0 )
 8001a22:	2c00      	cmp	r4, #0
 8001a24:	d014      	beq.n	8001a50 <pvPortMalloc+0x84>
				xWantedSize += xHeapStructSize;
 8001a26:	0023      	movs	r3, r4
				if( ( xWantedSize & portBYTE_ALIGNMENT_MASK ) != 0x00 )
 8001a28:	2107      	movs	r1, #7
				xWantedSize += xHeapStructSize;
 8001a2a:	3308      	adds	r3, #8
				if( ( xWantedSize & portBYTE_ALIGNMENT_MASK ) != 0x00 )
 8001a2c:	420b      	tst	r3, r1
 8001a2e:	d001      	beq.n	8001a34 <pvPortMalloc+0x68>
					xWantedSize += ( portBYTE_ALIGNMENT - ( xWantedSize & portBYTE_ALIGNMENT_MASK ) );
 8001a30:	438b      	bics	r3, r1
 8001a32:	3308      	adds	r3, #8
			if( ( xWantedSize > 0 ) && ( xWantedSize <= xFreeBytesRemaining ) )
 8001a34:	2b00      	cmp	r3, #0
 8001a36:	d00b      	beq.n	8001a50 <pvPortMalloc+0x84>
 8001a38:	4924      	ldr	r1, [pc, #144]	; (8001acc <pvPortMalloc+0x100>)
 8001a3a:	680d      	ldr	r5, [r1, #0]
 8001a3c:	42ab      	cmp	r3, r5
 8001a3e:	d807      	bhi.n	8001a50 <pvPortMalloc+0x84>
				pxBlock = xStart.pxNextFreeBlock;
 8001a40:	4920      	ldr	r1, [pc, #128]	; (8001ac4 <pvPortMalloc+0xf8>)
 8001a42:	680c      	ldr	r4, [r1, #0]
				while( ( pxBlock->xBlockSize < xWantedSize ) && ( pxBlock->pxNextFreeBlock != NULL ) )
 8001a44:	6860      	ldr	r0, [r4, #4]
 8001a46:	4283      	cmp	r3, r0
 8001a48:	d807      	bhi.n	8001a5a <pvPortMalloc+0x8e>
				if( pxBlock != pxEnd )
 8001a4a:	6812      	ldr	r2, [r2, #0]
 8001a4c:	4294      	cmp	r4, r2
 8001a4e:	d10b      	bne.n	8001a68 <pvPortMalloc+0x9c>
void *pvReturn = NULL;
 8001a50:	2500      	movs	r5, #0
 8001a52:	e028      	b.n	8001aa6 <pvPortMalloc+0xda>
size_t xTotalHeapSize = configTOTAL_HEAP_SIZE;
 8001a54:	23c0      	movs	r3, #192	; 0xc0
 8001a56:	011b      	lsls	r3, r3, #4
 8001a58:	e7cc      	b.n	80019f4 <pvPortMalloc+0x28>
				while( ( pxBlock->xBlockSize < xWantedSize ) && ( pxBlock->pxNextFreeBlock != NULL ) )
 8001a5a:	6827      	ldr	r7, [r4, #0]
 8001a5c:	46bc      	mov	ip, r7
 8001a5e:	2f00      	cmp	r7, #0
 8001a60:	d0f3      	beq.n	8001a4a <pvPortMalloc+0x7e>
 8001a62:	0021      	movs	r1, r4
 8001a64:	4664      	mov	r4, ip
 8001a66:	e7ed      	b.n	8001a44 <pvPortMalloc+0x78>
					pvReturn = ( void * ) ( ( ( uint8_t * ) pxPreviousBlock->pxNextFreeBlock ) + xHeapStructSize );
 8001a68:	680a      	ldr	r2, [r1, #0]
 8001a6a:	0017      	movs	r7, r2
					pxPreviousBlock->pxNextFreeBlock = pxBlock->pxNextFreeBlock;
 8001a6c:	6822      	ldr	r2, [r4, #0]
 8001a6e:	600a      	str	r2, [r1, #0]
					if( ( pxBlock->xBlockSize - xWantedSize ) > heapMINIMUM_BLOCK_SIZE )
 8001a70:	1ac2      	subs	r2, r0, r3
 8001a72:	2a10      	cmp	r2, #16
 8001a74:	d908      	bls.n	8001a88 <pvPortMalloc+0xbc>
						pxNewBlockLink = ( void * ) ( ( ( uint8_t * ) pxBlock ) + xWantedSize );
 8001a76:	18e0      	adds	r0, r4, r3
						configASSERT( ( ( ( size_t ) pxNewBlockLink ) & portBYTE_ALIGNMENT_MASK ) == 0 );
 8001a78:	0741      	lsls	r1, r0, #29
 8001a7a:	d001      	beq.n	8001a80 <pvPortMalloc+0xb4>
 8001a7c:	b672      	cpsid	i
 8001a7e:	e7fe      	b.n	8001a7e <pvPortMalloc+0xb2>
						pxNewBlockLink->xBlockSize = pxBlock->xBlockSize - xWantedSize;
 8001a80:	6042      	str	r2, [r0, #4]
						pxBlock->xBlockSize = xWantedSize;
 8001a82:	6063      	str	r3, [r4, #4]
						prvInsertBlockIntoFreeList( pxNewBlockLink );
 8001a84:	f7ff ff7e 	bl	8001984 <prvInsertBlockIntoFreeList>
					xFreeBytesRemaining -= pxBlock->xBlockSize;
 8001a88:	6863      	ldr	r3, [r4, #4]
 8001a8a:	4a10      	ldr	r2, [pc, #64]	; (8001acc <pvPortMalloc+0x100>)
 8001a8c:	1aed      	subs	r5, r5, r3
 8001a8e:	6015      	str	r5, [r2, #0]
					if( xFreeBytesRemaining < xMinimumEverFreeBytesRemaining )
 8001a90:	4a0d      	ldr	r2, [pc, #52]	; (8001ac8 <pvPortMalloc+0xfc>)
 8001a92:	6811      	ldr	r1, [r2, #0]
 8001a94:	428d      	cmp	r5, r1
 8001a96:	d200      	bcs.n	8001a9a <pvPortMalloc+0xce>
						xMinimumEverFreeBytesRemaining = xFreeBytesRemaining;
 8001a98:	6015      	str	r5, [r2, #0]
					pxBlock->xBlockSize |= xBlockAllocatedBit;
 8001a9a:	431e      	orrs	r6, r3
					pvReturn = ( void * ) ( ( ( uint8_t * ) pxPreviousBlock->pxNextFreeBlock ) + xHeapStructSize );
 8001a9c:	003d      	movs	r5, r7
					pxBlock->pxNextFreeBlock = NULL;
 8001a9e:	2300      	movs	r3, #0
					pvReturn = ( void * ) ( ( ( uint8_t * ) pxPreviousBlock->pxNextFreeBlock ) + xHeapStructSize );
 8001aa0:	3508      	adds	r5, #8
					pxBlock->xBlockSize |= xBlockAllocatedBit;
 8001aa2:	6066      	str	r6, [r4, #4]
					pxBlock->pxNextFreeBlock = NULL;
 8001aa4:	6023      	str	r3, [r4, #0]
	( void ) xTaskResumeAll();
 8001aa6:	f000 fc03 	bl	80022b0 <xTaskResumeAll>
	configASSERT( ( ( ( size_t ) pvReturn ) & ( size_t ) portBYTE_ALIGNMENT_MASK ) == 0 );
 8001aaa:	076b      	lsls	r3, r5, #29
 8001aac:	d001      	beq.n	8001ab2 <pvPortMalloc+0xe6>
 8001aae:	b672      	cpsid	i
 8001ab0:	e7fe      	b.n	8001ab0 <pvPortMalloc+0xe4>
}
 8001ab2:	0028      	movs	r0, r5
 8001ab4:	bdf8      	pop	{r3, r4, r5, r6, r7, pc}
 8001ab6:	46c0      	nop			; (mov r8, r8)
 8001ab8:	20000024 	.word	0x20000024
 8001abc:	20000c28 	.word	0x20000c28
 8001ac0:	20000028 	.word	0x20000028
 8001ac4:	20000c34 	.word	0x20000c34
 8001ac8:	20000c30 	.word	0x20000c30
 8001acc:	20000c2c 	.word	0x20000c2c

08001ad0 <vPortFree>:
{
 8001ad0:	b510      	push	{r4, lr}
	if( pv != NULL )
 8001ad2:	2800      	cmp	r0, #0
 8001ad4:	d01b      	beq.n	8001b0e <vPortFree+0x3e>
		configASSERT( ( pxLink->xBlockSize & xBlockAllocatedBit ) != 0 );
 8001ad6:	4a0e      	ldr	r2, [pc, #56]	; (8001b10 <vPortFree+0x40>)
 8001ad8:	3808      	subs	r0, #8
 8001ada:	6843      	ldr	r3, [r0, #4]
 8001adc:	6812      	ldr	r2, [r2, #0]
 8001ade:	0004      	movs	r4, r0
 8001ae0:	421a      	tst	r2, r3
 8001ae2:	d101      	bne.n	8001ae8 <vPortFree+0x18>
 8001ae4:	b672      	cpsid	i
 8001ae6:	e7fe      	b.n	8001ae6 <vPortFree+0x16>
		configASSERT( pxLink->pxNextFreeBlock == NULL );
 8001ae8:	6801      	ldr	r1, [r0, #0]
 8001aea:	2900      	cmp	r1, #0
 8001aec:	d001      	beq.n	8001af2 <vPortFree+0x22>
 8001aee:	b672      	cpsid	i
 8001af0:	e7fe      	b.n	8001af0 <vPortFree+0x20>
				pxLink->xBlockSize &= ~xBlockAllocatedBit;
 8001af2:	4393      	bics	r3, r2
 8001af4:	6043      	str	r3, [r0, #4]
				vTaskSuspendAll();
 8001af6:	f000 fb4f 	bl	8002198 <vTaskSuspendAll>
					xFreeBytesRemaining += pxLink->xBlockSize;
 8001afa:	4a06      	ldr	r2, [pc, #24]	; (8001b14 <vPortFree+0x44>)
 8001afc:	6863      	ldr	r3, [r4, #4]
 8001afe:	6811      	ldr	r1, [r2, #0]
					prvInsertBlockIntoFreeList( ( ( BlockLink_t * ) pxLink ) );
 8001b00:	0020      	movs	r0, r4
					xFreeBytesRemaining += pxLink->xBlockSize;
 8001b02:	185b      	adds	r3, r3, r1
 8001b04:	6013      	str	r3, [r2, #0]
					prvInsertBlockIntoFreeList( ( ( BlockLink_t * ) pxLink ) );
 8001b06:	f7ff ff3d 	bl	8001984 <prvInsertBlockIntoFreeList>
				( void ) xTaskResumeAll();
 8001b0a:	f000 fbd1 	bl	80022b0 <xTaskResumeAll>
}
 8001b0e:	bd10      	pop	{r4, pc}
 8001b10:	20000c28 	.word	0x20000c28
 8001b14:	20000c2c 	.word	0x20000c2c

08001b18 <prvCopyDataToQueue>:

#endif /* configUSE_TRACE_FACILITY */
/*-----------------------------------------------------------*/

static BaseType_t prvCopyDataToQueue( Queue_t * const pxQueue, const void *pvItemToQueue, const BaseType_t xPosition )
{
 8001b18:	b570      	push	{r4, r5, r6, lr}
 8001b1a:	0016      	movs	r6, r2

	/* This function is called from a critical section. */

	uxMessagesWaiting = pxQueue->uxMessagesWaiting;

	if( pxQueue->uxItemSize == ( UBaseType_t ) 0 )
 8001b1c:	6c02      	ldr	r2, [r0, #64]	; 0x40
{
 8001b1e:	0004      	movs	r4, r0
	uxMessagesWaiting = pxQueue->uxMessagesWaiting;
 8001b20:	6b85      	ldr	r5, [r0, #56]	; 0x38
	if( pxQueue->uxItemSize == ( UBaseType_t ) 0 )
 8001b22:	2a00      	cmp	r2, #0
 8001b24:	d10a      	bne.n	8001b3c <prvCopyDataToQueue+0x24>
	{
		#if ( configUSE_MUTEXES == 1 )
		{
			if( pxQueue->uxQueueType == queueQUEUE_IS_MUTEX )
 8001b26:	6806      	ldr	r6, [r0, #0]
BaseType_t xReturn = pdFALSE;
 8001b28:	0010      	movs	r0, r2
			if( pxQueue->uxQueueType == queueQUEUE_IS_MUTEX )
 8001b2a:	2e00      	cmp	r6, #0
 8001b2c:	d103      	bne.n	8001b36 <prvCopyDataToQueue+0x1e>
			{
				/* The mutex is no longer being held. */
				xReturn = xTaskPriorityDisinherit( ( void * ) pxQueue->pxMutexHolder );
 8001b2e:	6860      	ldr	r0, [r4, #4]
 8001b30:	f000 fd9e 	bl	8002670 <xTaskPriorityDisinherit>
				pxQueue->pxMutexHolder = NULL;
 8001b34:	6066      	str	r6, [r4, #4]
		{
			mtCOVERAGE_TEST_MARKER();
		}
	}

	pxQueue->uxMessagesWaiting = uxMessagesWaiting + 1;
 8001b36:	3501      	adds	r5, #1
 8001b38:	63a5      	str	r5, [r4, #56]	; 0x38

	return xReturn;
}
 8001b3a:	bd70      	pop	{r4, r5, r6, pc}
	else if( xPosition == queueSEND_TO_BACK )
 8001b3c:	2e00      	cmp	r6, #0
 8001b3e:	d10d      	bne.n	8001b5c <prvCopyDataToQueue+0x44>
		( void ) memcpy( ( void * ) pxQueue->pcWriteTo, pvItemToQueue, ( size_t ) pxQueue->uxItemSize ); /*lint !e961 !e418 MISRA exception as the casts are only redundant for some ports, plus previous logic ensures a null pointer can only be passed to memcpy() if the copy size is 0. */
 8001b40:	6880      	ldr	r0, [r0, #8]
 8001b42:	f001 fadb 	bl	80030fc <memcpy>
		pxQueue->pcWriteTo += pxQueue->uxItemSize;
 8001b46:	68a3      	ldr	r3, [r4, #8]
 8001b48:	6c22      	ldr	r2, [r4, #64]	; 0x40
BaseType_t xReturn = pdFALSE;
 8001b4a:	0030      	movs	r0, r6
		pxQueue->pcWriteTo += pxQueue->uxItemSize;
 8001b4c:	189b      	adds	r3, r3, r2
		if( pxQueue->pcWriteTo >= pxQueue->pcTail ) /*lint !e946 MISRA exception justified as comparison of pointers is the cleanest solution. */
 8001b4e:	6862      	ldr	r2, [r4, #4]
		pxQueue->pcWriteTo += pxQueue->uxItemSize;
 8001b50:	60a3      	str	r3, [r4, #8]
		if( pxQueue->pcWriteTo >= pxQueue->pcTail ) /*lint !e946 MISRA exception justified as comparison of pointers is the cleanest solution. */
 8001b52:	4293      	cmp	r3, r2
 8001b54:	d3ef      	bcc.n	8001b36 <prvCopyDataToQueue+0x1e>
			pxQueue->pcWriteTo = pxQueue->pcHead;
 8001b56:	6823      	ldr	r3, [r4, #0]
 8001b58:	60a3      	str	r3, [r4, #8]
 8001b5a:	e7ec      	b.n	8001b36 <prvCopyDataToQueue+0x1e>
		( void ) memcpy( ( void * ) pxQueue->u.pcReadFrom, pvItemToQueue, ( size_t ) pxQueue->uxItemSize ); /*lint !e961 MISRA exception as the casts are only redundant for some ports. */
 8001b5c:	68c0      	ldr	r0, [r0, #12]
 8001b5e:	f001 facd 	bl	80030fc <memcpy>
		pxQueue->u.pcReadFrom -= pxQueue->uxItemSize;
 8001b62:	6c23      	ldr	r3, [r4, #64]	; 0x40
 8001b64:	68e2      	ldr	r2, [r4, #12]
 8001b66:	425b      	negs	r3, r3
		if( pxQueue->u.pcReadFrom < pxQueue->pcHead ) /*lint !e946 MISRA exception justified as comparison of pointers is the cleanest solution. */
 8001b68:	6821      	ldr	r1, [r4, #0]
		pxQueue->u.pcReadFrom -= pxQueue->uxItemSize;
 8001b6a:	18d2      	adds	r2, r2, r3
 8001b6c:	60e2      	str	r2, [r4, #12]
		if( pxQueue->u.pcReadFrom < pxQueue->pcHead ) /*lint !e946 MISRA exception justified as comparison of pointers is the cleanest solution. */
 8001b6e:	428a      	cmp	r2, r1
 8001b70:	d202      	bcs.n	8001b78 <prvCopyDataToQueue+0x60>
			pxQueue->u.pcReadFrom = ( pxQueue->pcTail - pxQueue->uxItemSize );
 8001b72:	6862      	ldr	r2, [r4, #4]
 8001b74:	18d3      	adds	r3, r2, r3
 8001b76:	60e3      	str	r3, [r4, #12]
BaseType_t xReturn = pdFALSE;
 8001b78:	2000      	movs	r0, #0
		if( xPosition == queueOVERWRITE )
 8001b7a:	2e02      	cmp	r6, #2
 8001b7c:	d1db      	bne.n	8001b36 <prvCopyDataToQueue+0x1e>
				--uxMessagesWaiting;
 8001b7e:	002b      	movs	r3, r5
 8001b80:	1e5a      	subs	r2, r3, #1
 8001b82:	4193      	sbcs	r3, r2
 8001b84:	1aed      	subs	r5, r5, r3
 8001b86:	e7d6      	b.n	8001b36 <prvCopyDataToQueue+0x1e>

08001b88 <prvCopyDataFromQueue>:
/*-----------------------------------------------------------*/

static void prvCopyDataFromQueue( Queue_t * const pxQueue, void * const pvBuffer )
{
 8001b88:	0003      	movs	r3, r0
	if( pxQueue->uxItemSize != ( UBaseType_t ) 0 )
 8001b8a:	6c1a      	ldr	r2, [r3, #64]	; 0x40
{
 8001b8c:	b510      	push	{r4, lr}
 8001b8e:	0008      	movs	r0, r1
	if( pxQueue->uxItemSize != ( UBaseType_t ) 0 )
 8001b90:	2a00      	cmp	r2, #0
 8001b92:	d00a      	beq.n	8001baa <prvCopyDataFromQueue+0x22>
	{
		pxQueue->u.pcReadFrom += pxQueue->uxItemSize;
 8001b94:	68d9      	ldr	r1, [r3, #12]
		if( pxQueue->u.pcReadFrom >= pxQueue->pcTail ) /*lint !e946 MISRA exception justified as use of the relational operator is the cleanest solutions. */
 8001b96:	685c      	ldr	r4, [r3, #4]
		pxQueue->u.pcReadFrom += pxQueue->uxItemSize;
 8001b98:	1889      	adds	r1, r1, r2
 8001b9a:	60d9      	str	r1, [r3, #12]
		if( pxQueue->u.pcReadFrom >= pxQueue->pcTail ) /*lint !e946 MISRA exception justified as use of the relational operator is the cleanest solutions. */
 8001b9c:	42a1      	cmp	r1, r4
 8001b9e:	d301      	bcc.n	8001ba4 <prvCopyDataFromQueue+0x1c>
		{
			pxQueue->u.pcReadFrom = pxQueue->pcHead;
 8001ba0:	6819      	ldr	r1, [r3, #0]
 8001ba2:	60d9      	str	r1, [r3, #12]
		}
		else
		{
			mtCOVERAGE_TEST_MARKER();
		}
		( void ) memcpy( ( void * ) pvBuffer, ( void * ) pxQueue->u.pcReadFrom, ( size_t ) pxQueue->uxItemSize ); /*lint !e961 !e418 MISRA exception as the casts are only redundant for some ports.  Also previous logic ensures a null pointer can only be passed to memcpy() when the count is 0. */
 8001ba4:	68d9      	ldr	r1, [r3, #12]
 8001ba6:	f001 faa9 	bl	80030fc <memcpy>
	}
}
 8001baa:	bd10      	pop	{r4, pc}

08001bac <prvUnlockQueue>:
/*-----------------------------------------------------------*/

static void prvUnlockQueue( Queue_t * const pxQueue )
{
 8001bac:	b570      	push	{r4, r5, r6, lr}
 8001bae:	0005      	movs	r5, r0
	removed from the queue while the queue was locked.  When a queue is
	locked items can be added or removed, but the event lists cannot be
	updated. */
	taskENTER_CRITICAL();
	{
		int8_t cTxLock = pxQueue->cTxLock;
 8001bb0:	002e      	movs	r6, r5
 8001bb2:	3645      	adds	r6, #69	; 0x45
	taskENTER_CRITICAL();
 8001bb4:	f7ff fe5c 	bl	8001870 <vPortEnterCritical>
		int8_t cTxLock = pxQueue->cTxLock;
 8001bb8:	7834      	ldrb	r4, [r6, #0]
 8001bba:	b264      	sxtb	r4, r4

		/* See if data was added to the queue while it was locked. */
		while( cTxLock > queueLOCKED_UNMODIFIED )
 8001bbc:	2c00      	cmp	r4, #0
 8001bbe:	dc10      	bgt.n	8001be2 <prvUnlockQueue+0x36>
			#endif /* configUSE_QUEUE_SETS */

			--cTxLock;
		}

		pxQueue->cTxLock = queueUNLOCKED;
 8001bc0:	23ff      	movs	r3, #255	; 0xff
 8001bc2:	7033      	strb	r3, [r6, #0]
	taskEXIT_CRITICAL();

	/* Do the same for the Rx lock. */
	taskENTER_CRITICAL();
	{
		int8_t cRxLock = pxQueue->cRxLock;
 8001bc4:	002e      	movs	r6, r5
 8001bc6:	3644      	adds	r6, #68	; 0x44
	taskEXIT_CRITICAL();
 8001bc8:	f7ff fe5e 	bl	8001888 <vPortExitCritical>
	taskENTER_CRITICAL();
 8001bcc:	f7ff fe50 	bl	8001870 <vPortEnterCritical>
		int8_t cRxLock = pxQueue->cRxLock;
 8001bd0:	7834      	ldrb	r4, [r6, #0]
 8001bd2:	b264      	sxtb	r4, r4

		while( cRxLock > queueLOCKED_UNMODIFIED )
 8001bd4:	2c00      	cmp	r4, #0
 8001bd6:	dc11      	bgt.n	8001bfc <prvUnlockQueue+0x50>
			{
				break;
			}
		}

		pxQueue->cRxLock = queueUNLOCKED;
 8001bd8:	23ff      	movs	r3, #255	; 0xff
 8001bda:	7033      	strb	r3, [r6, #0]
	}
	taskEXIT_CRITICAL();
 8001bdc:	f7ff fe54 	bl	8001888 <vPortExitCritical>
}
 8001be0:	bd70      	pop	{r4, r5, r6, pc}
				if( listLIST_IS_EMPTY( &( pxQueue->xTasksWaitingToReceive ) ) == pdFALSE )
 8001be2:	6a6b      	ldr	r3, [r5, #36]	; 0x24
 8001be4:	2b00      	cmp	r3, #0
 8001be6:	d0eb      	beq.n	8001bc0 <prvUnlockQueue+0x14>
					if( xTaskRemoveFromEventList( &( pxQueue->xTasksWaitingToReceive ) ) != pdFALSE )
 8001be8:	0028      	movs	r0, r5
 8001bea:	3024      	adds	r0, #36	; 0x24
 8001bec:	f000 fc78 	bl	80024e0 <xTaskRemoveFromEventList>
 8001bf0:	2800      	cmp	r0, #0
 8001bf2:	d001      	beq.n	8001bf8 <prvUnlockQueue+0x4c>
						vTaskMissedYield();
 8001bf4:	f000 fcf0 	bl	80025d8 <vTaskMissedYield>
 8001bf8:	3c01      	subs	r4, #1
 8001bfa:	e7de      	b.n	8001bba <prvUnlockQueue+0xe>
			if( listLIST_IS_EMPTY( &( pxQueue->xTasksWaitingToSend ) ) == pdFALSE )
 8001bfc:	692b      	ldr	r3, [r5, #16]
 8001bfe:	2b00      	cmp	r3, #0
 8001c00:	d0ea      	beq.n	8001bd8 <prvUnlockQueue+0x2c>
				if( xTaskRemoveFromEventList( &( pxQueue->xTasksWaitingToSend ) ) != pdFALSE )
 8001c02:	0028      	movs	r0, r5
 8001c04:	3010      	adds	r0, #16
 8001c06:	f000 fc6b 	bl	80024e0 <xTaskRemoveFromEventList>
 8001c0a:	2800      	cmp	r0, #0
 8001c0c:	d001      	beq.n	8001c12 <prvUnlockQueue+0x66>
					vTaskMissedYield();
 8001c0e:	f000 fce3 	bl	80025d8 <vTaskMissedYield>
 8001c12:	3c01      	subs	r4, #1
 8001c14:	e7dd      	b.n	8001bd2 <prvUnlockQueue+0x26>

08001c16 <xQueueGenericReset>:
{
 8001c16:	b570      	push	{r4, r5, r6, lr}
 8001c18:	0004      	movs	r4, r0
 8001c1a:	000d      	movs	r5, r1
	configASSERT( pxQueue );
 8001c1c:	2800      	cmp	r0, #0
 8001c1e:	d101      	bne.n	8001c24 <xQueueGenericReset+0xe>
 8001c20:	b672      	cpsid	i
 8001c22:	e7fe      	b.n	8001c22 <xQueueGenericReset+0xc>
	taskENTER_CRITICAL();
 8001c24:	f7ff fe24 	bl	8001870 <vPortEnterCritical>
		pxQueue->pcTail = pxQueue->pcHead + ( pxQueue->uxLength * pxQueue->uxItemSize );
 8001c28:	6c21      	ldr	r1, [r4, #64]	; 0x40
 8001c2a:	6be3      	ldr	r3, [r4, #60]	; 0x3c
 8001c2c:	6822      	ldr	r2, [r4, #0]
 8001c2e:	434b      	muls	r3, r1
 8001c30:	18d0      	adds	r0, r2, r3
		pxQueue->u.pcReadFrom = pxQueue->pcHead + ( ( pxQueue->uxLength - ( UBaseType_t ) 1U ) * pxQueue->uxItemSize );
 8001c32:	1a5b      	subs	r3, r3, r1
 8001c34:	18d3      	adds	r3, r2, r3
 8001c36:	60e3      	str	r3, [r4, #12]
		pxQueue->cRxLock = queueUNLOCKED;
 8001c38:	0023      	movs	r3, r4
		pxQueue->pcTail = pxQueue->pcHead + ( pxQueue->uxLength * pxQueue->uxItemSize );
 8001c3a:	6060      	str	r0, [r4, #4]
		pxQueue->pcWriteTo = pxQueue->pcHead;
 8001c3c:	60a2      	str	r2, [r4, #8]
		pxQueue->uxMessagesWaiting = ( UBaseType_t ) 0U;
 8001c3e:	2000      	movs	r0, #0
		pxQueue->cRxLock = queueUNLOCKED;
 8001c40:	22ff      	movs	r2, #255	; 0xff
 8001c42:	3344      	adds	r3, #68	; 0x44
		pxQueue->uxMessagesWaiting = ( UBaseType_t ) 0U;
 8001c44:	63a0      	str	r0, [r4, #56]	; 0x38
		pxQueue->cRxLock = queueUNLOCKED;
 8001c46:	701a      	strb	r2, [r3, #0]
		pxQueue->cTxLock = queueUNLOCKED;
 8001c48:	705a      	strb	r2, [r3, #1]
		if( xNewQueue == pdFALSE )
 8001c4a:	4285      	cmp	r5, r0
 8001c4c:	d10e      	bne.n	8001c6c <xQueueGenericReset+0x56>
			if( listLIST_IS_EMPTY( &( pxQueue->xTasksWaitingToSend ) ) == pdFALSE )
 8001c4e:	6923      	ldr	r3, [r4, #16]
 8001c50:	4283      	cmp	r3, r0
 8001c52:	d007      	beq.n	8001c64 <xQueueGenericReset+0x4e>
				if( xTaskRemoveFromEventList( &( pxQueue->xTasksWaitingToSend ) ) != pdFALSE )
 8001c54:	0020      	movs	r0, r4
 8001c56:	3010      	adds	r0, #16
 8001c58:	f000 fc42 	bl	80024e0 <xTaskRemoveFromEventList>
 8001c5c:	2800      	cmp	r0, #0
 8001c5e:	d001      	beq.n	8001c64 <xQueueGenericReset+0x4e>
					queueYIELD_IF_USING_PREEMPTION();
 8001c60:	f7ff fdfa 	bl	8001858 <vPortYield>
	taskEXIT_CRITICAL();
 8001c64:	f7ff fe10 	bl	8001888 <vPortExitCritical>
}
 8001c68:	2001      	movs	r0, #1
 8001c6a:	bd70      	pop	{r4, r5, r6, pc}
			vListInitialise( &( pxQueue->xTasksWaitingToSend ) );
 8001c6c:	0020      	movs	r0, r4
 8001c6e:	3010      	adds	r0, #16
 8001c70:	f7ff fd77 	bl	8001762 <vListInitialise>
			vListInitialise( &( pxQueue->xTasksWaitingToReceive ) );
 8001c74:	0020      	movs	r0, r4
 8001c76:	3024      	adds	r0, #36	; 0x24
 8001c78:	f7ff fd73 	bl	8001762 <vListInitialise>
 8001c7c:	e7f2      	b.n	8001c64 <xQueueGenericReset+0x4e>

08001c7e <xQueueGenericCreate>:
	{
 8001c7e:	b570      	push	{r4, r5, r6, lr}
 8001c80:	0006      	movs	r6, r0
 8001c82:	000d      	movs	r5, r1
		configASSERT( uxQueueLength > ( UBaseType_t ) 0 );
 8001c84:	2800      	cmp	r0, #0
 8001c86:	d101      	bne.n	8001c8c <xQueueGenericCreate+0xe>
 8001c88:	b672      	cpsid	i
 8001c8a:	e7fe      	b.n	8001c8a <xQueueGenericCreate+0xc>
			xQueueSizeInBytes = ( size_t ) ( uxQueueLength * uxItemSize ); /*lint !e961 MISRA exception as the casts are only redundant for some ports. */
 8001c8c:	0008      	movs	r0, r1
 8001c8e:	4370      	muls	r0, r6
		pxNewQueue = ( Queue_t * ) pvPortMalloc( sizeof( Queue_t ) + xQueueSizeInBytes );
 8001c90:	3048      	adds	r0, #72	; 0x48
 8001c92:	f7ff fe9b 	bl	80019cc <pvPortMalloc>
 8001c96:	1e04      	subs	r4, r0, #0
		if( pxNewQueue != NULL )
 8001c98:	d008      	beq.n	8001cac <xQueueGenericCreate+0x2e>
	if( uxItemSize == ( UBaseType_t ) 0 )
 8001c9a:	2d00      	cmp	r5, #0
 8001c9c:	d108      	bne.n	8001cb0 <xQueueGenericCreate+0x32>
		pxNewQueue->pcHead = ( int8_t * ) pxNewQueue;
 8001c9e:	6020      	str	r0, [r4, #0]
	pxNewQueue->uxLength = uxQueueLength;
 8001ca0:	63e6      	str	r6, [r4, #60]	; 0x3c
	pxNewQueue->uxItemSize = uxItemSize;
 8001ca2:	6425      	str	r5, [r4, #64]	; 0x40
	( void ) xQueueGenericReset( pxNewQueue, pdTRUE );
 8001ca4:	2101      	movs	r1, #1
 8001ca6:	0020      	movs	r0, r4
 8001ca8:	f7ff ffb5 	bl	8001c16 <xQueueGenericReset>
	}
 8001cac:	0020      	movs	r0, r4
 8001cae:	bd70      	pop	{r4, r5, r6, pc}
			pucQueueStorage = ( ( uint8_t * ) pxNewQueue ) + sizeof( Queue_t );
 8001cb0:	0003      	movs	r3, r0
 8001cb2:	3348      	adds	r3, #72	; 0x48
		pxNewQueue->pcHead = ( int8_t * ) pucQueueStorage;
 8001cb4:	6003      	str	r3, [r0, #0]
 8001cb6:	e7f3      	b.n	8001ca0 <xQueueGenericCreate+0x22>

08001cb8 <xQueueGenericSend>:
{
 8001cb8:	b5f0      	push	{r4, r5, r6, r7, lr}
 8001cba:	b085      	sub	sp, #20
 8001cbc:	0004      	movs	r4, r0
 8001cbe:	9100      	str	r1, [sp, #0]
 8001cc0:	9201      	str	r2, [sp, #4]
 8001cc2:	001d      	movs	r5, r3
	configASSERT( pxQueue );
 8001cc4:	2800      	cmp	r0, #0
 8001cc6:	d101      	bne.n	8001ccc <xQueueGenericSend+0x14>
 8001cc8:	b672      	cpsid	i
 8001cca:	e7fe      	b.n	8001cca <xQueueGenericSend+0x12>
	configASSERT( !( ( pvItemToQueue == NULL ) && ( pxQueue->uxItemSize != ( UBaseType_t ) 0U ) ) );
 8001ccc:	9b00      	ldr	r3, [sp, #0]
 8001cce:	2b00      	cmp	r3, #0
 8001cd0:	d000      	beq.n	8001cd4 <xQueueGenericSend+0x1c>
 8001cd2:	e06f      	b.n	8001db4 <xQueueGenericSend+0xfc>
 8001cd4:	6c03      	ldr	r3, [r0, #64]	; 0x40
 8001cd6:	2b00      	cmp	r3, #0
 8001cd8:	d100      	bne.n	8001cdc <xQueueGenericSend+0x24>
 8001cda:	e06b      	b.n	8001db4 <xQueueGenericSend+0xfc>
 8001cdc:	b672      	cpsid	i
 8001cde:	e7fe      	b.n	8001cde <xQueueGenericSend+0x26>
				if( xTicksToWait == ( TickType_t ) 0 )
 8001ce0:	9e01      	ldr	r6, [sp, #4]
 8001ce2:	2e00      	cmp	r6, #0
 8001ce4:	d103      	bne.n	8001cee <xQueueGenericSend+0x36>
					taskEXIT_CRITICAL();
 8001ce6:	f7ff fdcf 	bl	8001888 <vPortExitCritical>
			return errQUEUE_FULL;
 8001cea:	2000      	movs	r0, #0
 8001cec:	e054      	b.n	8001d98 <xQueueGenericSend+0xe0>
				else if( xEntryTimeSet == pdFALSE )
 8001cee:	2f00      	cmp	r7, #0
 8001cf0:	d102      	bne.n	8001cf8 <xQueueGenericSend+0x40>
					vTaskSetTimeOutState( &xTimeOut );
 8001cf2:	a802      	add	r0, sp, #8
 8001cf4:	f000 fc30 	bl	8002558 <vTaskSetTimeOutState>
		taskEXIT_CRITICAL();
 8001cf8:	f7ff fdc6 	bl	8001888 <vPortExitCritical>
		vTaskSuspendAll();
 8001cfc:	f000 fa4c 	bl	8002198 <vTaskSuspendAll>
		prvLockQueue( pxQueue );
 8001d00:	f7ff fdb6 	bl	8001870 <vPortEnterCritical>
 8001d04:	0022      	movs	r2, r4
 8001d06:	3244      	adds	r2, #68	; 0x44
 8001d08:	7813      	ldrb	r3, [r2, #0]
 8001d0a:	b25b      	sxtb	r3, r3
 8001d0c:	3301      	adds	r3, #1
 8001d0e:	d101      	bne.n	8001d14 <xQueueGenericSend+0x5c>
 8001d10:	2300      	movs	r3, #0
 8001d12:	7013      	strb	r3, [r2, #0]
 8001d14:	0022      	movs	r2, r4
 8001d16:	3245      	adds	r2, #69	; 0x45
 8001d18:	7813      	ldrb	r3, [r2, #0]
 8001d1a:	b25b      	sxtb	r3, r3
 8001d1c:	3301      	adds	r3, #1
 8001d1e:	d101      	bne.n	8001d24 <xQueueGenericSend+0x6c>
 8001d20:	2300      	movs	r3, #0
 8001d22:	7013      	strb	r3, [r2, #0]
 8001d24:	f7ff fdb0 	bl	8001888 <vPortExitCritical>
		if( xTaskCheckForTimeOut( &xTimeOut, &xTicksToWait ) == pdFALSE )
 8001d28:	a901      	add	r1, sp, #4
 8001d2a:	a802      	add	r0, sp, #8
 8001d2c:	f000 fc24 	bl	8002578 <xTaskCheckForTimeOut>
 8001d30:	2800      	cmp	r0, #0
 8001d32:	d139      	bne.n	8001da8 <xQueueGenericSend+0xf0>

static BaseType_t prvIsQueueFull( const Queue_t *pxQueue )
{
BaseType_t xReturn;

	taskENTER_CRITICAL();
 8001d34:	f7ff fd9c 	bl	8001870 <vPortEnterCritical>
	{
		if( pxQueue->uxMessagesWaiting == pxQueue->uxLength )
 8001d38:	6ba7      	ldr	r7, [r4, #56]	; 0x38
 8001d3a:	6be6      	ldr	r6, [r4, #60]	; 0x3c
		else
		{
			xReturn = pdFALSE;
		}
	}
	taskEXIT_CRITICAL();
 8001d3c:	f7ff fda4 	bl	8001888 <vPortExitCritical>
			if( prvIsQueueFull( pxQueue ) != pdFALSE )
 8001d40:	42b7      	cmp	r7, r6
 8001d42:	d12b      	bne.n	8001d9c <xQueueGenericSend+0xe4>
				vTaskPlaceOnEventList( &( pxQueue->xTasksWaitingToSend ), xTicksToWait );
 8001d44:	0020      	movs	r0, r4
 8001d46:	9901      	ldr	r1, [sp, #4]
 8001d48:	3010      	adds	r0, #16
 8001d4a:	f000 fbb7 	bl	80024bc <vTaskPlaceOnEventList>
				prvUnlockQueue( pxQueue );
 8001d4e:	0020      	movs	r0, r4
 8001d50:	f7ff ff2c 	bl	8001bac <prvUnlockQueue>
				if( xTaskResumeAll() == pdFALSE )
 8001d54:	f000 faac 	bl	80022b0 <xTaskResumeAll>
 8001d58:	2800      	cmp	r0, #0
 8001d5a:	d101      	bne.n	8001d60 <xQueueGenericSend+0xa8>
					portYIELD_WITHIN_API();
 8001d5c:	f7ff fd7c 	bl	8001858 <vPortYield>
 8001d60:	2701      	movs	r7, #1
		taskENTER_CRITICAL();
 8001d62:	f7ff fd85 	bl	8001870 <vPortEnterCritical>
			if( ( pxQueue->uxMessagesWaiting < pxQueue->uxLength ) || ( xCopyPosition == queueOVERWRITE ) )
 8001d66:	6ba3      	ldr	r3, [r4, #56]	; 0x38
 8001d68:	6be2      	ldr	r2, [r4, #60]	; 0x3c
 8001d6a:	4293      	cmp	r3, r2
 8001d6c:	d301      	bcc.n	8001d72 <xQueueGenericSend+0xba>
 8001d6e:	2d02      	cmp	r5, #2
 8001d70:	d1b6      	bne.n	8001ce0 <xQueueGenericSend+0x28>
				xYieldRequired = prvCopyDataToQueue( pxQueue, pvItemToQueue, xCopyPosition );
 8001d72:	002a      	movs	r2, r5
 8001d74:	9900      	ldr	r1, [sp, #0]
 8001d76:	0020      	movs	r0, r4
 8001d78:	f7ff fece 	bl	8001b18 <prvCopyDataToQueue>
					if( listLIST_IS_EMPTY( &( pxQueue->xTasksWaitingToReceive ) ) == pdFALSE )
 8001d7c:	6a63      	ldr	r3, [r4, #36]	; 0x24
 8001d7e:	2b00      	cmp	r3, #0
 8001d80:	d003      	beq.n	8001d8a <xQueueGenericSend+0xd2>
						if( xTaskRemoveFromEventList( &( pxQueue->xTasksWaitingToReceive ) ) != pdFALSE )
 8001d82:	0020      	movs	r0, r4
 8001d84:	3024      	adds	r0, #36	; 0x24
 8001d86:	f000 fbab 	bl	80024e0 <xTaskRemoveFromEventList>
 8001d8a:	2800      	cmp	r0, #0
 8001d8c:	d001      	beq.n	8001d92 <xQueueGenericSend+0xda>
							queueYIELD_IF_USING_PREEMPTION();
 8001d8e:	f7ff fd63 	bl	8001858 <vPortYield>
				taskEXIT_CRITICAL();
 8001d92:	f7ff fd79 	bl	8001888 <vPortExitCritical>
				return pdPASS;
 8001d96:	2001      	movs	r0, #1
}
 8001d98:	b005      	add	sp, #20
 8001d9a:	bdf0      	pop	{r4, r5, r6, r7, pc}
				prvUnlockQueue( pxQueue );
 8001d9c:	0020      	movs	r0, r4
 8001d9e:	f7ff ff05 	bl	8001bac <prvUnlockQueue>
				( void ) xTaskResumeAll();
 8001da2:	f000 fa85 	bl	80022b0 <xTaskResumeAll>
 8001da6:	e7db      	b.n	8001d60 <xQueueGenericSend+0xa8>
			prvUnlockQueue( pxQueue );
 8001da8:	0020      	movs	r0, r4
 8001daa:	f7ff feff 	bl	8001bac <prvUnlockQueue>
			( void ) xTaskResumeAll();
 8001dae:	f000 fa7f 	bl	80022b0 <xTaskResumeAll>
 8001db2:	e79a      	b.n	8001cea <xQueueGenericSend+0x32>
	configASSERT( !( ( xCopyPosition == queueOVERWRITE ) && ( pxQueue->uxLength != 1 ) ) );
 8001db4:	2d02      	cmp	r5, #2
 8001db6:	d102      	bne.n	8001dbe <xQueueGenericSend+0x106>
 8001db8:	6be3      	ldr	r3, [r4, #60]	; 0x3c
 8001dba:	2b01      	cmp	r3, #1
 8001dbc:	d109      	bne.n	8001dd2 <xQueueGenericSend+0x11a>
		configASSERT( !( ( xTaskGetSchedulerState() == taskSCHEDULER_SUSPENDED ) && ( xTicksToWait != 0 ) ) );
 8001dbe:	f000 fc11 	bl	80025e4 <xTaskGetSchedulerState>
 8001dc2:	2700      	movs	r7, #0
 8001dc4:	2800      	cmp	r0, #0
 8001dc6:	d1cc      	bne.n	8001d62 <xQueueGenericSend+0xaa>
 8001dc8:	9f01      	ldr	r7, [sp, #4]
 8001dca:	2f00      	cmp	r7, #0
 8001dcc:	d0c9      	beq.n	8001d62 <xQueueGenericSend+0xaa>
 8001dce:	b672      	cpsid	i
 8001dd0:	e7fe      	b.n	8001dd0 <xQueueGenericSend+0x118>
	configASSERT( !( ( xCopyPosition == queueOVERWRITE ) && ( pxQueue->uxLength != 1 ) ) );
 8001dd2:	b672      	cpsid	i
 8001dd4:	e7fe      	b.n	8001dd4 <xQueueGenericSend+0x11c>

08001dd6 <xQueueGenericReceive>:
{
 8001dd6:	b5f0      	push	{r4, r5, r6, r7, lr}
 8001dd8:	b085      	sub	sp, #20
 8001dda:	0004      	movs	r4, r0
 8001ddc:	000f      	movs	r7, r1
 8001dde:	9201      	str	r2, [sp, #4]
 8001de0:	9300      	str	r3, [sp, #0]
	configASSERT( pxQueue );
 8001de2:	2800      	cmp	r0, #0
 8001de4:	d101      	bne.n	8001dea <xQueueGenericReceive+0x14>
 8001de6:	b672      	cpsid	i
 8001de8:	e7fe      	b.n	8001de8 <xQueueGenericReceive+0x12>
	configASSERT( !( ( pvBuffer == NULL ) && ( pxQueue->uxItemSize != ( UBaseType_t ) 0U ) ) );
 8001dea:	2900      	cmp	r1, #0
 8001dec:	d000      	beq.n	8001df0 <xQueueGenericReceive+0x1a>
 8001dee:	e08e      	b.n	8001f0e <xQueueGenericReceive+0x138>
 8001df0:	6c03      	ldr	r3, [r0, #64]	; 0x40
 8001df2:	2b00      	cmp	r3, #0
 8001df4:	d100      	bne.n	8001df8 <xQueueGenericReceive+0x22>
 8001df6:	e08a      	b.n	8001f0e <xQueueGenericReceive+0x138>
 8001df8:	b672      	cpsid	i
 8001dfa:	e7fe      	b.n	8001dfa <xQueueGenericReceive+0x24>
					if( listLIST_IS_EMPTY( &( pxQueue->xTasksWaitingToReceive ) ) == pdFALSE )
 8001dfc:	6a63      	ldr	r3, [r4, #36]	; 0x24
					pxQueue->u.pcReadFrom = pcOriginalReadPosition;
 8001dfe:	60e6      	str	r6, [r4, #12]
					if( listLIST_IS_EMPTY( &( pxQueue->xTasksWaitingToReceive ) ) == pdFALSE )
 8001e00:	2b00      	cmp	r3, #0
 8001e02:	d06c      	beq.n	8001ede <xQueueGenericReceive+0x108>
						if( xTaskRemoveFromEventList( &( pxQueue->xTasksWaitingToReceive ) ) != pdFALSE )
 8001e04:	0020      	movs	r0, r4
 8001e06:	3024      	adds	r0, #36	; 0x24
 8001e08:	e063      	b.n	8001ed2 <xQueueGenericReceive+0xfc>
				if( xTicksToWait == ( TickType_t ) 0 )
 8001e0a:	9d01      	ldr	r5, [sp, #4]
 8001e0c:	2d00      	cmp	r5, #0
 8001e0e:	d103      	bne.n	8001e18 <xQueueGenericReceive+0x42>
					taskEXIT_CRITICAL();
 8001e10:	f7ff fd3a 	bl	8001888 <vPortExitCritical>
				return errQUEUE_EMPTY;
 8001e14:	0028      	movs	r0, r5
 8001e16:	e065      	b.n	8001ee4 <xQueueGenericReceive+0x10e>
				else if( xEntryTimeSet == pdFALSE )
 8001e18:	2e00      	cmp	r6, #0
 8001e1a:	d102      	bne.n	8001e22 <xQueueGenericReceive+0x4c>
					vTaskSetTimeOutState( &xTimeOut );
 8001e1c:	a802      	add	r0, sp, #8
 8001e1e:	f000 fb9b 	bl	8002558 <vTaskSetTimeOutState>
		taskEXIT_CRITICAL();
 8001e22:	f7ff fd31 	bl	8001888 <vPortExitCritical>
		vTaskSuspendAll();
 8001e26:	f000 f9b7 	bl	8002198 <vTaskSuspendAll>
		prvLockQueue( pxQueue );
 8001e2a:	f7ff fd21 	bl	8001870 <vPortEnterCritical>
 8001e2e:	0022      	movs	r2, r4
 8001e30:	3244      	adds	r2, #68	; 0x44
 8001e32:	7813      	ldrb	r3, [r2, #0]
 8001e34:	b25b      	sxtb	r3, r3
 8001e36:	3301      	adds	r3, #1
 8001e38:	d101      	bne.n	8001e3e <xQueueGenericReceive+0x68>
 8001e3a:	2300      	movs	r3, #0
 8001e3c:	7013      	strb	r3, [r2, #0]
 8001e3e:	0022      	movs	r2, r4
 8001e40:	3245      	adds	r2, #69	; 0x45
 8001e42:	7813      	ldrb	r3, [r2, #0]
 8001e44:	b25b      	sxtb	r3, r3
 8001e46:	3301      	adds	r3, #1
 8001e48:	d101      	bne.n	8001e4e <xQueueGenericReceive+0x78>
 8001e4a:	2300      	movs	r3, #0
 8001e4c:	7013      	strb	r3, [r2, #0]
 8001e4e:	f7ff fd1b 	bl	8001888 <vPortExitCritical>
		if( xTaskCheckForTimeOut( &xTimeOut, &xTicksToWait ) == pdFALSE )
 8001e52:	a901      	add	r1, sp, #4
 8001e54:	a802      	add	r0, sp, #8
 8001e56:	f000 fb8f 	bl	8002578 <xTaskCheckForTimeOut>
 8001e5a:	2800      	cmp	r0, #0
 8001e5c:	d14a      	bne.n	8001ef4 <xQueueGenericReceive+0x11e>
	taskENTER_CRITICAL();
 8001e5e:	f7ff fd07 	bl	8001870 <vPortEnterCritical>
		if( pxQueue->uxMessagesWaiting == ( UBaseType_t )  0 )
 8001e62:	6ba5      	ldr	r5, [r4, #56]	; 0x38
	taskEXIT_CRITICAL();
 8001e64:	f7ff fd10 	bl	8001888 <vPortExitCritical>
			if( prvIsQueueEmpty( pxQueue ) != pdFALSE )
 8001e68:	2d00      	cmp	r5, #0
 8001e6a:	d13d      	bne.n	8001ee8 <xQueueGenericReceive+0x112>
					if( pxQueue->uxQueueType == queueQUEUE_IS_MUTEX )
 8001e6c:	6823      	ldr	r3, [r4, #0]
 8001e6e:	2b00      	cmp	r3, #0
 8001e70:	d106      	bne.n	8001e80 <xQueueGenericReceive+0xaa>
						taskENTER_CRITICAL();
 8001e72:	f7ff fcfd 	bl	8001870 <vPortEnterCritical>
							vTaskPriorityInherit( ( void * ) pxQueue->pxMutexHolder );
 8001e76:	6860      	ldr	r0, [r4, #4]
 8001e78:	f000 fbc4 	bl	8002604 <vTaskPriorityInherit>
						taskEXIT_CRITICAL();
 8001e7c:	f7ff fd04 	bl	8001888 <vPortExitCritical>
				vTaskPlaceOnEventList( &( pxQueue->xTasksWaitingToReceive ), xTicksToWait );
 8001e80:	0020      	movs	r0, r4
 8001e82:	9901      	ldr	r1, [sp, #4]
 8001e84:	3024      	adds	r0, #36	; 0x24
 8001e86:	f000 fb19 	bl	80024bc <vTaskPlaceOnEventList>
				prvUnlockQueue( pxQueue );
 8001e8a:	0020      	movs	r0, r4
 8001e8c:	f7ff fe8e 	bl	8001bac <prvUnlockQueue>
				if( xTaskResumeAll() == pdFALSE )
 8001e90:	f000 fa0e 	bl	80022b0 <xTaskResumeAll>
 8001e94:	2800      	cmp	r0, #0
 8001e96:	d101      	bne.n	8001e9c <xQueueGenericReceive+0xc6>
					portYIELD_WITHIN_API();
 8001e98:	f7ff fcde 	bl	8001858 <vPortYield>
 8001e9c:	2601      	movs	r6, #1
		taskENTER_CRITICAL();
 8001e9e:	f7ff fce7 	bl	8001870 <vPortEnterCritical>
			const UBaseType_t uxMessagesWaiting = pxQueue->uxMessagesWaiting;
 8001ea2:	6ba5      	ldr	r5, [r4, #56]	; 0x38
			if( uxMessagesWaiting > ( UBaseType_t ) 0 )
 8001ea4:	2d00      	cmp	r5, #0
 8001ea6:	d0b0      	beq.n	8001e0a <xQueueGenericReceive+0x34>
				prvCopyDataFromQueue( pxQueue, pvBuffer );
 8001ea8:	0039      	movs	r1, r7
 8001eaa:	0020      	movs	r0, r4
				pcOriginalReadPosition = pxQueue->u.pcReadFrom;
 8001eac:	68e6      	ldr	r6, [r4, #12]
				prvCopyDataFromQueue( pxQueue, pvBuffer );
 8001eae:	f7ff fe6b 	bl	8001b88 <prvCopyDataFromQueue>
				if( xJustPeeking == pdFALSE )
 8001eb2:	9b00      	ldr	r3, [sp, #0]
 8001eb4:	2b00      	cmp	r3, #0
 8001eb6:	d1a1      	bne.n	8001dfc <xQueueGenericReceive+0x26>
						if( pxQueue->uxQueueType == queueQUEUE_IS_MUTEX )
 8001eb8:	6823      	ldr	r3, [r4, #0]
					pxQueue->uxMessagesWaiting = uxMessagesWaiting - 1;
 8001eba:	3d01      	subs	r5, #1
 8001ebc:	63a5      	str	r5, [r4, #56]	; 0x38
						if( pxQueue->uxQueueType == queueQUEUE_IS_MUTEX )
 8001ebe:	2b00      	cmp	r3, #0
 8001ec0:	d102      	bne.n	8001ec8 <xQueueGenericReceive+0xf2>
							pxQueue->pxMutexHolder = ( int8_t * ) pvTaskIncrementMutexHeldCount(); /*lint !e961 Cast is not redundant as TaskHandle_t is a typedef. */
 8001ec2:	f000 fc0b 	bl	80026dc <pvTaskIncrementMutexHeldCount>
 8001ec6:	6060      	str	r0, [r4, #4]
					if( listLIST_IS_EMPTY( &( pxQueue->xTasksWaitingToSend ) ) == pdFALSE )
 8001ec8:	6923      	ldr	r3, [r4, #16]
 8001eca:	2b00      	cmp	r3, #0
 8001ecc:	d007      	beq.n	8001ede <xQueueGenericReceive+0x108>
						if( xTaskRemoveFromEventList( &( pxQueue->xTasksWaitingToSend ) ) != pdFALSE )
 8001ece:	0020      	movs	r0, r4
 8001ed0:	3010      	adds	r0, #16
 8001ed2:	f000 fb05 	bl	80024e0 <xTaskRemoveFromEventList>
 8001ed6:	2800      	cmp	r0, #0
 8001ed8:	d001      	beq.n	8001ede <xQueueGenericReceive+0x108>
							queueYIELD_IF_USING_PREEMPTION();
 8001eda:	f7ff fcbd 	bl	8001858 <vPortYield>
				taskEXIT_CRITICAL();
 8001ede:	f7ff fcd3 	bl	8001888 <vPortExitCritical>
				return pdPASS;
 8001ee2:	2001      	movs	r0, #1
}
 8001ee4:	b005      	add	sp, #20
 8001ee6:	bdf0      	pop	{r4, r5, r6, r7, pc}
				prvUnlockQueue( pxQueue );
 8001ee8:	0020      	movs	r0, r4
 8001eea:	f7ff fe5f 	bl	8001bac <prvUnlockQueue>
				( void ) xTaskResumeAll();
 8001eee:	f000 f9df 	bl	80022b0 <xTaskResumeAll>
 8001ef2:	e7d3      	b.n	8001e9c <xQueueGenericReceive+0xc6>
			prvUnlockQueue( pxQueue );
 8001ef4:	0020      	movs	r0, r4
 8001ef6:	f7ff fe59 	bl	8001bac <prvUnlockQueue>
			( void ) xTaskResumeAll();
 8001efa:	f000 f9d9 	bl	80022b0 <xTaskResumeAll>
	taskENTER_CRITICAL();
 8001efe:	f7ff fcb7 	bl	8001870 <vPortEnterCritical>
		if( pxQueue->uxMessagesWaiting == ( UBaseType_t )  0 )
 8001f02:	6ba5      	ldr	r5, [r4, #56]	; 0x38
	taskEXIT_CRITICAL();
 8001f04:	f7ff fcc0 	bl	8001888 <vPortExitCritical>
			if( prvIsQueueEmpty( pxQueue ) != pdFALSE )
 8001f08:	2d00      	cmp	r5, #0
 8001f0a:	d1c7      	bne.n	8001e9c <xQueueGenericReceive+0xc6>
 8001f0c:	e782      	b.n	8001e14 <xQueueGenericReceive+0x3e>
		configASSERT( !( ( xTaskGetSchedulerState() == taskSCHEDULER_SUSPENDED ) && ( xTicksToWait != 0 ) ) );
 8001f0e:	f000 fb69 	bl	80025e4 <xTaskGetSchedulerState>
 8001f12:	2600      	movs	r6, #0
 8001f14:	2800      	cmp	r0, #0
 8001f16:	d1c2      	bne.n	8001e9e <xQueueGenericReceive+0xc8>
 8001f18:	9e01      	ldr	r6, [sp, #4]
 8001f1a:	2e00      	cmp	r6, #0
 8001f1c:	d0bf      	beq.n	8001e9e <xQueueGenericReceive+0xc8>
 8001f1e:	b672      	cpsid	i
 8001f20:	e7fe      	b.n	8001f20 <xQueueGenericReceive+0x14a>
	...

08001f24 <prvResetNextTaskUnblockTime>:

static void prvResetNextTaskUnblockTime( void )
{
TCB_t *pxTCB;

	if( listLIST_IS_EMPTY( pxDelayedTaskList ) != pdFALSE )
 8001f24:	4a07      	ldr	r2, [pc, #28]	; (8001f44 <prvResetNextTaskUnblockTime+0x20>)
 8001f26:	6813      	ldr	r3, [r2, #0]
 8001f28:	6819      	ldr	r1, [r3, #0]
 8001f2a:	4b07      	ldr	r3, [pc, #28]	; (8001f48 <prvResetNextTaskUnblockTime+0x24>)
 8001f2c:	2900      	cmp	r1, #0
 8001f2e:	d103      	bne.n	8001f38 <prvResetNextTaskUnblockTime+0x14>
	{
		/* The new current delayed list is empty.  Set xNextTaskUnblockTime to
		the maximum possible value so it is	extremely unlikely that the
		if( xTickCount >= xNextTaskUnblockTime ) test will pass until
		there is an item in the delayed list. */
		xNextTaskUnblockTime = portMAX_DELAY;
 8001f30:	2201      	movs	r2, #1
 8001f32:	4252      	negs	r2, r2
		/* The new current delayed list is not empty, get the value of
		the item at the head of the delayed list.  This is the time at
		which the task at the head of the delayed list should be removed
		from the Blocked state. */
		( pxTCB ) = ( TCB_t * ) listGET_OWNER_OF_HEAD_ENTRY( pxDelayedTaskList );
		xNextTaskUnblockTime = listGET_LIST_ITEM_VALUE( &( ( pxTCB )->xStateListItem ) );
 8001f34:	601a      	str	r2, [r3, #0]
	}
}
 8001f36:	4770      	bx	lr
		( pxTCB ) = ( TCB_t * ) listGET_OWNER_OF_HEAD_ENTRY( pxDelayedTaskList );
 8001f38:	6812      	ldr	r2, [r2, #0]
 8001f3a:	68d2      	ldr	r2, [r2, #12]
		xNextTaskUnblockTime = listGET_LIST_ITEM_VALUE( &( ( pxTCB )->xStateListItem ) );
 8001f3c:	68d2      	ldr	r2, [r2, #12]
 8001f3e:	6852      	ldr	r2, [r2, #4]
 8001f40:	e7f8      	b.n	8001f34 <prvResetNextTaskUnblockTime+0x10>
 8001f42:	46c0      	nop			; (mov r8, r8)
 8001f44:	20000c40 	.word	0x20000c40
 8001f48:	20000d18 	.word	0x20000d18

08001f4c <prvAddCurrentTaskToDelayedList>:
#endif /* configUSE_TASK_NOTIFICATIONS */
/*-----------------------------------------------------------*/


static void prvAddCurrentTaskToDelayedList( TickType_t xTicksToWait, const BaseType_t xCanBlockIndefinitely )
{
 8001f4c:	b5f8      	push	{r3, r4, r5, r6, r7, lr}
 8001f4e:	0004      	movs	r4, r0
TickType_t xTimeToWake;
const TickType_t xConstTickCount = xTickCount;
 8001f50:	4b14      	ldr	r3, [pc, #80]	; (8001fa4 <prvAddCurrentTaskToDelayedList+0x58>)
	}
	#endif

	/* Remove the task from the ready list before adding it to the blocked list
	as the same list item is used for both lists. */
	if( uxListRemove( &( pxCurrentTCB->xStateListItem ) ) == ( UBaseType_t ) 0 )
 8001f52:	4d15      	ldr	r5, [pc, #84]	; (8001fa8 <prvAddCurrentTaskToDelayedList+0x5c>)
const TickType_t xConstTickCount = xTickCount;
 8001f54:	681e      	ldr	r6, [r3, #0]
	if( uxListRemove( &( pxCurrentTCB->xStateListItem ) ) == ( UBaseType_t ) 0 )
 8001f56:	6828      	ldr	r0, [r5, #0]
{
 8001f58:	000f      	movs	r7, r1
	if( uxListRemove( &( pxCurrentTCB->xStateListItem ) ) == ( UBaseType_t ) 0 )
 8001f5a:	3004      	adds	r0, #4
 8001f5c:	f7ff fc32 	bl	80017c4 <uxListRemove>
		mtCOVERAGE_TEST_MARKER();
	}

	#if ( INCLUDE_vTaskSuspend == 1 )
	{
		if( ( xTicksToWait == portMAX_DELAY ) && ( xCanBlockIndefinitely != pdFALSE ) )
 8001f60:	1c63      	adds	r3, r4, #1
 8001f62:	d107      	bne.n	8001f74 <prvAddCurrentTaskToDelayedList+0x28>
 8001f64:	2f00      	cmp	r7, #0
 8001f66:	d005      	beq.n	8001f74 <prvAddCurrentTaskToDelayedList+0x28>
		{
			/* Add the task to the suspended task list instead of a delayed task
			list to ensure it is not woken by a timing event.  It will block
			indefinitely. */
			vListInsertEnd( &xSuspendedTaskList, &( pxCurrentTCB->xStateListItem ) );
 8001f68:	6829      	ldr	r1, [r5, #0]
 8001f6a:	4810      	ldr	r0, [pc, #64]	; (8001fac <prvAddCurrentTaskToDelayedList+0x60>)
 8001f6c:	3104      	adds	r1, #4
 8001f6e:	f7ff fc06 	bl	800177e <vListInsertEnd>

		/* Avoid compiler warning when INCLUDE_vTaskSuspend is not 1. */
		( void ) xCanBlockIndefinitely;
	}
	#endif /* INCLUDE_vTaskSuspend */
}
 8001f72:	bdf8      	pop	{r3, r4, r5, r6, r7, pc}
			listSET_LIST_ITEM_VALUE( &( pxCurrentTCB->xStateListItem ), xTimeToWake );
 8001f74:	682b      	ldr	r3, [r5, #0]
			xTimeToWake = xConstTickCount + xTicksToWait;
 8001f76:	1934      	adds	r4, r6, r4
			listSET_LIST_ITEM_VALUE( &( pxCurrentTCB->xStateListItem ), xTimeToWake );
 8001f78:	605c      	str	r4, [r3, #4]
			if( xTimeToWake < xConstTickCount )
 8001f7a:	42a6      	cmp	r6, r4
 8001f7c:	d906      	bls.n	8001f8c <prvAddCurrentTaskToDelayedList+0x40>
				vListInsert( pxOverflowDelayedTaskList, &( pxCurrentTCB->xStateListItem ) );
 8001f7e:	4b0c      	ldr	r3, [pc, #48]	; (8001fb0 <prvAddCurrentTaskToDelayedList+0x64>)
 8001f80:	6818      	ldr	r0, [r3, #0]
 8001f82:	6829      	ldr	r1, [r5, #0]
 8001f84:	3104      	adds	r1, #4
 8001f86:	f7ff fc06 	bl	8001796 <vListInsert>
 8001f8a:	e7f2      	b.n	8001f72 <prvAddCurrentTaskToDelayedList+0x26>
				vListInsert( pxDelayedTaskList, &( pxCurrentTCB->xStateListItem ) );
 8001f8c:	4b09      	ldr	r3, [pc, #36]	; (8001fb4 <prvAddCurrentTaskToDelayedList+0x68>)
 8001f8e:	6818      	ldr	r0, [r3, #0]
 8001f90:	6829      	ldr	r1, [r5, #0]
 8001f92:	3104      	adds	r1, #4
 8001f94:	f7ff fbff 	bl	8001796 <vListInsert>
				if( xTimeToWake < xNextTaskUnblockTime )
 8001f98:	4b07      	ldr	r3, [pc, #28]	; (8001fb8 <prvAddCurrentTaskToDelayedList+0x6c>)
 8001f9a:	681a      	ldr	r2, [r3, #0]
 8001f9c:	4294      	cmp	r4, r2
 8001f9e:	d2e8      	bcs.n	8001f72 <prvAddCurrentTaskToDelayedList+0x26>
					xNextTaskUnblockTime = xTimeToWake;
 8001fa0:	601c      	str	r4, [r3, #0]
}
 8001fa2:	e7e6      	b.n	8001f72 <prvAddCurrentTaskToDelayedList+0x26>
 8001fa4:	20000d60 	.word	0x20000d60
 8001fa8:	20000c3c 	.word	0x20000c3c
 8001fac:	20000d38 	.word	0x20000d38
 8001fb0:	20000c44 	.word	0x20000c44
 8001fb4:	20000c40 	.word	0x20000c40
 8001fb8:	20000d18 	.word	0x20000d18

08001fbc <xTaskCreate>:
	{
 8001fbc:	b5f0      	push	{r4, r5, r6, r7, lr}
			pxStack = ( StackType_t * ) pvPortMalloc( ( ( ( size_t ) usStackDepth ) * sizeof( StackType_t ) ) ); /*lint !e961 MISRA exception as the casts are only redundant for some ports. */
 8001fbe:	0095      	lsls	r5, r2, #2
	{
 8001fc0:	b085      	sub	sp, #20
 8001fc2:	9002      	str	r0, [sp, #8]
			pxStack = ( StackType_t * ) pvPortMalloc( ( ( ( size_t ) usStackDepth ) * sizeof( StackType_t ) ) ); /*lint !e961 MISRA exception as the casts are only redundant for some ports. */
 8001fc4:	0028      	movs	r0, r5
	{
 8001fc6:	000f      	movs	r7, r1
 8001fc8:	9303      	str	r3, [sp, #12]
			pxStack = ( StackType_t * ) pvPortMalloc( ( ( ( size_t ) usStackDepth ) * sizeof( StackType_t ) ) ); /*lint !e961 MISRA exception as the casts are only redundant for some ports. */
 8001fca:	f7ff fcff 	bl	80019cc <pvPortMalloc>
 8001fce:	1e06      	subs	r6, r0, #0
			if( pxStack != NULL )
 8001fd0:	d100      	bne.n	8001fd4 <xTaskCreate+0x18>
 8001fd2:	e08e      	b.n	80020f2 <xTaskCreate+0x136>
				pxNewTCB = ( TCB_t * ) pvPortMalloc( sizeof( TCB_t ) ); /*lint !e961 MISRA exception as the casts are only redundant for some paths. */
 8001fd4:	2054      	movs	r0, #84	; 0x54
 8001fd6:	f7ff fcf9 	bl	80019cc <pvPortMalloc>
 8001fda:	1e04      	subs	r4, r0, #0
				if( pxNewTCB != NULL )
 8001fdc:	d100      	bne.n	8001fe0 <xTaskCreate+0x24>
 8001fde:	e085      	b.n	80020ec <xTaskCreate+0x130>
		pxTopOfStack = ( StackType_t * ) ( ( ( portPOINTER_SIZE_TYPE ) pxTopOfStack ) & ( ~( ( portPOINTER_SIZE_TYPE ) portBYTE_ALIGNMENT_MASK ) ) ); /*lint !e923 MISRA exception.  Avoiding casts between pointers and integers is not practical.  Size differences accounted for using portPOINTER_SIZE_TYPE type. */
 8001fe0:	2307      	movs	r3, #7
		pxTopOfStack = pxNewTCB->pxStack + ( ulStackDepth - ( uint32_t ) 1 );
 8001fe2:	3d04      	subs	r5, #4
					pxNewTCB->pxStack = pxStack;
 8001fe4:	6306      	str	r6, [r0, #48]	; 0x30
		pxTopOfStack = pxNewTCB->pxStack + ( ulStackDepth - ( uint32_t ) 1 );
 8001fe6:	1976      	adds	r6, r6, r5
		pxTopOfStack = ( StackType_t * ) ( ( ( portPOINTER_SIZE_TYPE ) pxTopOfStack ) & ( ~( ( portPOINTER_SIZE_TYPE ) portBYTE_ALIGNMENT_MASK ) ) ); /*lint !e923 MISRA exception.  Avoiding casts between pointers and integers is not practical.  Size differences accounted for using portPOINTER_SIZE_TYPE type. */
 8001fe8:	439e      	bics	r6, r3
	for( x = ( UBaseType_t ) 0; x < ( UBaseType_t ) configMAX_TASK_NAME_LEN; x++ )
 8001fea:	2300      	movs	r3, #0
		pxTopOfStack = ( StackType_t * ) ( ( ( portPOINTER_SIZE_TYPE ) pxTopOfStack ) & ( ~( ( portPOINTER_SIZE_TYPE ) portBYTE_ALIGNMENT_MASK ) ) ); /*lint !e923 MISRA exception.  Avoiding casts between pointers and integers is not practical.  Size differences accounted for using portPOINTER_SIZE_TYPE type. */
 8001fec:	9600      	str	r6, [sp, #0]
		pxNewTCB->pcTaskName[ x ] = pcName[ x ];
 8001fee:	001a      	movs	r2, r3
 8001ff0:	5cf9      	ldrb	r1, [r7, r3]
 8001ff2:	3234      	adds	r2, #52	; 0x34
 8001ff4:	54a1      	strb	r1, [r4, r2]
		if( pcName[ x ] == 0x00 )
 8001ff6:	5cfa      	ldrb	r2, [r7, r3]
 8001ff8:	2a00      	cmp	r2, #0
 8001ffa:	d002      	beq.n	8002002 <xTaskCreate+0x46>
	for( x = ( UBaseType_t ) 0; x < ( UBaseType_t ) configMAX_TASK_NAME_LEN; x++ )
 8001ffc:	3301      	adds	r3, #1
 8001ffe:	2b10      	cmp	r3, #16
 8002000:	d1f5      	bne.n	8001fee <xTaskCreate+0x32>
	pxNewTCB->pcTaskName[ configMAX_TASK_NAME_LEN - 1 ] = '\0';
 8002002:	0023      	movs	r3, r4
 8002004:	2500      	movs	r5, #0
 8002006:	9e0a      	ldr	r6, [sp, #40]	; 0x28
 8002008:	3343      	adds	r3, #67	; 0x43
 800200a:	701d      	strb	r5, [r3, #0]
 800200c:	2e06      	cmp	r6, #6
 800200e:	d900      	bls.n	8002012 <xTaskCreate+0x56>
 8002010:	2606      	movs	r6, #6
	vListInitialiseItem( &( pxNewTCB->xStateListItem ) );
 8002012:	1d23      	adds	r3, r4, #4
 8002014:	0018      	movs	r0, r3
	pxNewTCB->uxPriority = uxPriority;
 8002016:	62e6      	str	r6, [r4, #44]	; 0x2c
		pxNewTCB->uxBasePriority = uxPriority;
 8002018:	6466      	str	r6, [r4, #68]	; 0x44
		pxNewTCB->uxMutexesHeld = 0;
 800201a:	64a5      	str	r5, [r4, #72]	; 0x48
	vListInitialiseItem( &( pxNewTCB->xStateListItem ) );
 800201c:	9301      	str	r3, [sp, #4]
 800201e:	f7ff fbab 	bl	8001778 <vListInitialiseItem>
	vListInitialiseItem( &( pxNewTCB->xEventListItem ) );
 8002022:	0020      	movs	r0, r4
 8002024:	3018      	adds	r0, #24
 8002026:	f7ff fba7 	bl	8001778 <vListInitialiseItem>
	listSET_LIST_ITEM_VALUE( &( pxNewTCB->xEventListItem ), ( TickType_t ) configMAX_PRIORITIES - ( TickType_t ) uxPriority ); /*lint !e961 MISRA exception as the casts are only redundant for some ports. */
 800202a:	2307      	movs	r3, #7
 800202c:	1b9e      	subs	r6, r3, r6
		pxNewTCB->ucNotifyState = taskNOT_WAITING_NOTIFICATION;
 800202e:	0023      	movs	r3, r4
 8002030:	3350      	adds	r3, #80	; 0x50
	listSET_LIST_ITEM_OWNER( &( pxNewTCB->xStateListItem ), pxNewTCB );
 8002032:	6124      	str	r4, [r4, #16]
	listSET_LIST_ITEM_VALUE( &( pxNewTCB->xEventListItem ), ( TickType_t ) configMAX_PRIORITIES - ( TickType_t ) uxPriority ); /*lint !e961 MISRA exception as the casts are only redundant for some ports. */
 8002034:	61a6      	str	r6, [r4, #24]
	listSET_LIST_ITEM_OWNER( &( pxNewTCB->xEventListItem ), pxNewTCB );
 8002036:	6264      	str	r4, [r4, #36]	; 0x24
		pxNewTCB->ulNotifiedValue = 0;
 8002038:	64e5      	str	r5, [r4, #76]	; 0x4c
		pxNewTCB->pxTopOfStack = pxPortInitialiseStack( pxTopOfStack, pxTaskCode, pvParameters );
 800203a:	9a03      	ldr	r2, [sp, #12]
		pxNewTCB->ucNotifyState = taskNOT_WAITING_NOTIFICATION;
 800203c:	701d      	strb	r5, [r3, #0]
		pxNewTCB->pxTopOfStack = pxPortInitialiseStack( pxTopOfStack, pxTaskCode, pvParameters );
 800203e:	9902      	ldr	r1, [sp, #8]
 8002040:	9800      	ldr	r0, [sp, #0]
 8002042:	f7ff fbf7 	bl	8001834 <pxPortInitialiseStack>
	if( ( void * ) pxCreatedTask != NULL )
 8002046:	9b0b      	ldr	r3, [sp, #44]	; 0x2c
		pxNewTCB->pxTopOfStack = pxPortInitialiseStack( pxTopOfStack, pxTaskCode, pvParameters );
 8002048:	6020      	str	r0, [r4, #0]
	if( ( void * ) pxCreatedTask != NULL )
 800204a:	2b00      	cmp	r3, #0
 800204c:	d000      	beq.n	8002050 <xTaskCreate+0x94>
		*pxCreatedTask = ( TaskHandle_t ) pxNewTCB;
 800204e:	601c      	str	r4, [r3, #0]
	taskENTER_CRITICAL();
 8002050:	f7ff fc0e 	bl	8001870 <vPortEnterCritical>
		uxCurrentNumberOfTasks++;
 8002054:	4b2e      	ldr	r3, [pc, #184]	; (8002110 <xTaskCreate+0x154>)
		if( pxCurrentTCB == NULL )
 8002056:	4d2f      	ldr	r5, [pc, #188]	; (8002114 <xTaskCreate+0x158>)
		uxCurrentNumberOfTasks++;
 8002058:	681a      	ldr	r2, [r3, #0]
 800205a:	3201      	adds	r2, #1
 800205c:	601a      	str	r2, [r3, #0]
		if( pxCurrentTCB == NULL )
 800205e:	682a      	ldr	r2, [r5, #0]
 8002060:	2a00      	cmp	r2, #0
 8002062:	d149      	bne.n	80020f8 <xTaskCreate+0x13c>
			pxCurrentTCB = pxNewTCB;
 8002064:	602c      	str	r4, [r5, #0]
			if( uxCurrentNumberOfTasks == ( UBaseType_t ) 1 )
 8002066:	681b      	ldr	r3, [r3, #0]
 8002068:	2b01      	cmp	r3, #1
 800206a:	d11d      	bne.n	80020a8 <xTaskCreate+0xec>
 800206c:	4e2a      	ldr	r6, [pc, #168]	; (8002118 <xTaskCreate+0x15c>)
 800206e:	0037      	movs	r7, r6
 8002070:	378c      	adds	r7, #140	; 0x8c
		vListInitialise( &( pxReadyTasksLists[ uxPriority ] ) );
 8002072:	0030      	movs	r0, r6
 8002074:	3614      	adds	r6, #20
 8002076:	f7ff fb74 	bl	8001762 <vListInitialise>
	for( uxPriority = ( UBaseType_t ) 0U; uxPriority < ( UBaseType_t ) configMAX_PRIORITIES; uxPriority++ )
 800207a:	42b7      	cmp	r7, r6
 800207c:	d1f9      	bne.n	8002072 <xTaskCreate+0xb6>
	vListInitialise( &xDelayedTaskList1 );
 800207e:	4e27      	ldr	r6, [pc, #156]	; (800211c <xTaskCreate+0x160>)
 8002080:	0030      	movs	r0, r6
 8002082:	f7ff fb6e 	bl	8001762 <vListInitialise>
	vListInitialise( &xDelayedTaskList2 );
 8002086:	4f26      	ldr	r7, [pc, #152]	; (8002120 <xTaskCreate+0x164>)
 8002088:	0038      	movs	r0, r7
 800208a:	f7ff fb6a 	bl	8001762 <vListInitialise>
	vListInitialise( &xPendingReadyList );
 800208e:	4825      	ldr	r0, [pc, #148]	; (8002124 <xTaskCreate+0x168>)
 8002090:	f7ff fb67 	bl	8001762 <vListInitialise>
		vListInitialise( &xTasksWaitingTermination );
 8002094:	4824      	ldr	r0, [pc, #144]	; (8002128 <xTaskCreate+0x16c>)
 8002096:	f7ff fb64 	bl	8001762 <vListInitialise>
		vListInitialise( &xSuspendedTaskList );
 800209a:	4824      	ldr	r0, [pc, #144]	; (800212c <xTaskCreate+0x170>)
 800209c:	f7ff fb61 	bl	8001762 <vListInitialise>
	pxDelayedTaskList = &xDelayedTaskList1;
 80020a0:	4b23      	ldr	r3, [pc, #140]	; (8002130 <xTaskCreate+0x174>)
 80020a2:	601e      	str	r6, [r3, #0]
	pxOverflowDelayedTaskList = &xDelayedTaskList2;
 80020a4:	4b23      	ldr	r3, [pc, #140]	; (8002134 <xTaskCreate+0x178>)
 80020a6:	601f      	str	r7, [r3, #0]
		uxTaskNumber++;
 80020a8:	4a23      	ldr	r2, [pc, #140]	; (8002138 <xTaskCreate+0x17c>)
 80020aa:	6813      	ldr	r3, [r2, #0]
 80020ac:	3301      	adds	r3, #1
 80020ae:	6013      	str	r3, [r2, #0]
		prvAddTaskToReadyList( pxNewTCB );
 80020b0:	4a22      	ldr	r2, [pc, #136]	; (800213c <xTaskCreate+0x180>)
 80020b2:	6ae3      	ldr	r3, [r4, #44]	; 0x2c
 80020b4:	6811      	ldr	r1, [r2, #0]
 80020b6:	428b      	cmp	r3, r1
 80020b8:	d900      	bls.n	80020bc <xTaskCreate+0x100>
 80020ba:	6013      	str	r3, [r2, #0]
 80020bc:	2014      	movs	r0, #20
 80020be:	4358      	muls	r0, r3
 80020c0:	4b15      	ldr	r3, [pc, #84]	; (8002118 <xTaskCreate+0x15c>)
 80020c2:	9901      	ldr	r1, [sp, #4]
 80020c4:	1818      	adds	r0, r3, r0
 80020c6:	f7ff fb5a 	bl	800177e <vListInsertEnd>
	taskEXIT_CRITICAL();
 80020ca:	f7ff fbdd 	bl	8001888 <vPortExitCritical>
	if( xSchedulerRunning != pdFALSE )
 80020ce:	4b1c      	ldr	r3, [pc, #112]	; (8002140 <xTaskCreate+0x184>)
			xReturn = pdPASS;
 80020d0:	2601      	movs	r6, #1
	if( xSchedulerRunning != pdFALSE )
 80020d2:	681b      	ldr	r3, [r3, #0]
 80020d4:	2b00      	cmp	r3, #0
 80020d6:	d006      	beq.n	80020e6 <xTaskCreate+0x12a>
		if( pxCurrentTCB->uxPriority < pxNewTCB->uxPriority )
 80020d8:	682b      	ldr	r3, [r5, #0]
 80020da:	6ada      	ldr	r2, [r3, #44]	; 0x2c
 80020dc:	6ae3      	ldr	r3, [r4, #44]	; 0x2c
 80020de:	429a      	cmp	r2, r3
 80020e0:	d201      	bcs.n	80020e6 <xTaskCreate+0x12a>
			taskYIELD_IF_USING_PREEMPTION();
 80020e2:	f7ff fbb9 	bl	8001858 <vPortYield>
	}
 80020e6:	0030      	movs	r0, r6
 80020e8:	b005      	add	sp, #20
 80020ea:	bdf0      	pop	{r4, r5, r6, r7, pc}
					vPortFree( pxStack );
 80020ec:	0030      	movs	r0, r6
 80020ee:	f7ff fcef 	bl	8001ad0 <vPortFree>
			xReturn = errCOULD_NOT_ALLOCATE_REQUIRED_MEMORY;
 80020f2:	2601      	movs	r6, #1
 80020f4:	4276      	negs	r6, r6
 80020f6:	e7f6      	b.n	80020e6 <xTaskCreate+0x12a>
			if( xSchedulerRunning == pdFALSE )
 80020f8:	4b11      	ldr	r3, [pc, #68]	; (8002140 <xTaskCreate+0x184>)
 80020fa:	681b      	ldr	r3, [r3, #0]
 80020fc:	2b00      	cmp	r3, #0
 80020fe:	d1d3      	bne.n	80020a8 <xTaskCreate+0xec>
				if( pxCurrentTCB->uxPriority <= pxNewTCB->uxPriority )
 8002100:	682b      	ldr	r3, [r5, #0]
 8002102:	6ae2      	ldr	r2, [r4, #44]	; 0x2c
 8002104:	6adb      	ldr	r3, [r3, #44]	; 0x2c
 8002106:	4293      	cmp	r3, r2
 8002108:	d8ce      	bhi.n	80020a8 <xTaskCreate+0xec>
					pxCurrentTCB = pxNewTCB;
 800210a:	602c      	str	r4, [r5, #0]
 800210c:	e7cc      	b.n	80020a8 <xTaskCreate+0xec>
 800210e:	46c0      	nop			; (mov r8, r8)
 8002110:	20000cd4 	.word	0x20000cd4
 8002114:	20000c3c 	.word	0x20000c3c
 8002118:	20000c48 	.word	0x20000c48
 800211c:	20000cec 	.word	0x20000cec
 8002120:	20000d00 	.word	0x20000d00
 8002124:	20000d20 	.word	0x20000d20
 8002128:	20000d4c 	.word	0x20000d4c
 800212c:	20000d38 	.word	0x20000d38
 8002130:	20000c40 	.word	0x20000c40
 8002134:	20000c44 	.word	0x20000c44
 8002138:	20000ce4 	.word	0x20000ce4
 800213c:	20000ce8 	.word	0x20000ce8
 8002140:	20000d34 	.word	0x20000d34

08002144 <vTaskStartScheduler>:
{
 8002144:	b513      	push	{r0, r1, r4, lr}
		xReturn = xTaskCreate(	prvIdleTask,
 8002146:	2400      	movs	r4, #0
 8002148:	4b0d      	ldr	r3, [pc, #52]	; (8002180 <vTaskStartScheduler+0x3c>)
 800214a:	9400      	str	r4, [sp, #0]
 800214c:	9301      	str	r3, [sp, #4]
 800214e:	2280      	movs	r2, #128	; 0x80
 8002150:	0023      	movs	r3, r4
 8002152:	490c      	ldr	r1, [pc, #48]	; (8002184 <vTaskStartScheduler+0x40>)
 8002154:	480c      	ldr	r0, [pc, #48]	; (8002188 <vTaskStartScheduler+0x44>)
 8002156:	f7ff ff31 	bl	8001fbc <xTaskCreate>
	if( xReturn == pdPASS )
 800215a:	2801      	cmp	r0, #1
 800215c:	d10b      	bne.n	8002176 <vTaskStartScheduler+0x32>
		portDISABLE_INTERRUPTS();
 800215e:	b672      	cpsid	i
		xNextTaskUnblockTime = portMAX_DELAY;
 8002160:	2201      	movs	r2, #1
 8002162:	4b0a      	ldr	r3, [pc, #40]	; (800218c <vTaskStartScheduler+0x48>)
 8002164:	4252      	negs	r2, r2
 8002166:	601a      	str	r2, [r3, #0]
		xSchedulerRunning = pdTRUE;
 8002168:	4b09      	ldr	r3, [pc, #36]	; (8002190 <vTaskStartScheduler+0x4c>)
 800216a:	6018      	str	r0, [r3, #0]
		xTickCount = ( TickType_t ) 0U;
 800216c:	4b09      	ldr	r3, [pc, #36]	; (8002194 <vTaskStartScheduler+0x50>)
 800216e:	601c      	str	r4, [r3, #0]
		if( xPortStartScheduler() != pdFALSE )
 8002170:	f7ff fbee 	bl	8001950 <xPortStartScheduler>
}
 8002174:	bd13      	pop	{r0, r1, r4, pc}
		configASSERT( xReturn != errCOULD_NOT_ALLOCATE_REQUIRED_MEMORY );
 8002176:	1c43      	adds	r3, r0, #1
 8002178:	d1fc      	bne.n	8002174 <vTaskStartScheduler+0x30>
 800217a:	b672      	cpsid	i
 800217c:	e7fe      	b.n	800217c <vTaskStartScheduler+0x38>
 800217e:	46c0      	nop			; (mov r8, r8)
 8002180:	20000d14 	.word	0x20000d14
 8002184:	0800315c 	.word	0x0800315c
 8002188:	080023e9 	.word	0x080023e9
 800218c:	20000d18 	.word	0x20000d18
 8002190:	20000d34 	.word	0x20000d34
 8002194:	20000d60 	.word	0x20000d60

08002198 <vTaskSuspendAll>:
	++uxSchedulerSuspended;
 8002198:	4a02      	ldr	r2, [pc, #8]	; (80021a4 <vTaskSuspendAll+0xc>)
 800219a:	6813      	ldr	r3, [r2, #0]
 800219c:	3301      	adds	r3, #1
 800219e:	6013      	str	r3, [r2, #0]
}
 80021a0:	4770      	bx	lr
 80021a2:	46c0      	nop			; (mov r8, r8)
 80021a4:	20000ce0 	.word	0x20000ce0

080021a8 <xTaskGetTickCount>:
 80021a8:	4b01      	ldr	r3, [pc, #4]	; (80021b0 <xTaskGetTickCount+0x8>)
 80021aa:	6818      	ldr	r0, [r3, #0]
 80021ac:	4770      	bx	lr
 80021ae:	46c0      	nop			; (mov r8, r8)
 80021b0:	20000d60 	.word	0x20000d60

080021b4 <xTaskIncrementTick>:
	if( uxSchedulerSuspended == ( UBaseType_t ) pdFALSE )
 80021b4:	4b33      	ldr	r3, [pc, #204]	; (8002284 <xTaskIncrementTick+0xd0>)
{
 80021b6:	b5f7      	push	{r0, r1, r2, r4, r5, r6, r7, lr}
	if( uxSchedulerSuspended == ( UBaseType_t ) pdFALSE )
 80021b8:	681b      	ldr	r3, [r3, #0]
 80021ba:	2b00      	cmp	r3, #0
 80021bc:	d135      	bne.n	800222a <xTaskIncrementTick+0x76>
		const TickType_t xConstTickCount = xTickCount + 1;
 80021be:	4b32      	ldr	r3, [pc, #200]	; (8002288 <xTaskIncrementTick+0xd4>)
 80021c0:	681c      	ldr	r4, [r3, #0]
 80021c2:	3401      	adds	r4, #1
		xTickCount = xConstTickCount;
 80021c4:	601c      	str	r4, [r3, #0]
		if( xConstTickCount == ( TickType_t ) 0U )
 80021c6:	2c00      	cmp	r4, #0
 80021c8:	d111      	bne.n	80021ee <xTaskIncrementTick+0x3a>
			taskSWITCH_DELAYED_LISTS();
 80021ca:	4b30      	ldr	r3, [pc, #192]	; (800228c <xTaskIncrementTick+0xd8>)
 80021cc:	681a      	ldr	r2, [r3, #0]
 80021ce:	6812      	ldr	r2, [r2, #0]
 80021d0:	2a00      	cmp	r2, #0
 80021d2:	d001      	beq.n	80021d8 <xTaskIncrementTick+0x24>
 80021d4:	b672      	cpsid	i
 80021d6:	e7fe      	b.n	80021d6 <xTaskIncrementTick+0x22>
 80021d8:	4a2d      	ldr	r2, [pc, #180]	; (8002290 <xTaskIncrementTick+0xdc>)
 80021da:	6819      	ldr	r1, [r3, #0]
 80021dc:	6810      	ldr	r0, [r2, #0]
 80021de:	6018      	str	r0, [r3, #0]
 80021e0:	6011      	str	r1, [r2, #0]
 80021e2:	4a2c      	ldr	r2, [pc, #176]	; (8002294 <xTaskIncrementTick+0xe0>)
 80021e4:	6813      	ldr	r3, [r2, #0]
 80021e6:	3301      	adds	r3, #1
 80021e8:	6013      	str	r3, [r2, #0]
 80021ea:	f7ff fe9b 	bl	8001f24 <prvResetNextTaskUnblockTime>
		if( xConstTickCount >= xNextTaskUnblockTime )
 80021ee:	4f2a      	ldr	r7, [pc, #168]	; (8002298 <xTaskIncrementTick+0xe4>)
BaseType_t xSwitchRequired = pdFALSE;
 80021f0:	2600      	movs	r6, #0
		if( xConstTickCount >= xNextTaskUnblockTime )
 80021f2:	683b      	ldr	r3, [r7, #0]
 80021f4:	429c      	cmp	r4, r3
 80021f6:	d307      	bcc.n	8002208 <xTaskIncrementTick+0x54>
				if( listLIST_IS_EMPTY( pxDelayedTaskList ) != pdFALSE )
 80021f8:	4b24      	ldr	r3, [pc, #144]	; (800228c <xTaskIncrementTick+0xd8>)
 80021fa:	681a      	ldr	r2, [r3, #0]
 80021fc:	6812      	ldr	r2, [r2, #0]
 80021fe:	2a00      	cmp	r2, #0
 8002200:	d119      	bne.n	8002236 <xTaskIncrementTick+0x82>
					xNextTaskUnblockTime = portMAX_DELAY; /*lint !e961 MISRA exception as the casts are only redundant for some ports. */
 8002202:	2301      	movs	r3, #1
 8002204:	425b      	negs	r3, r3
 8002206:	603b      	str	r3, [r7, #0]
			if( listCURRENT_LIST_LENGTH( &( pxReadyTasksLists[ pxCurrentTCB->uxPriority ] ) ) > ( UBaseType_t ) 1 )
 8002208:	4b24      	ldr	r3, [pc, #144]	; (800229c <xTaskIncrementTick+0xe8>)
 800220a:	681b      	ldr	r3, [r3, #0]
 800220c:	6ada      	ldr	r2, [r3, #44]	; 0x2c
 800220e:	2314      	movs	r3, #20
 8002210:	4353      	muls	r3, r2
 8002212:	4a23      	ldr	r2, [pc, #140]	; (80022a0 <xTaskIncrementTick+0xec>)
 8002214:	58d3      	ldr	r3, [r2, r3]
 8002216:	2b01      	cmp	r3, #1
 8002218:	d900      	bls.n	800221c <xTaskIncrementTick+0x68>
				xSwitchRequired = pdTRUE;
 800221a:	2601      	movs	r6, #1
		if( xYieldPending != pdFALSE )
 800221c:	4b21      	ldr	r3, [pc, #132]	; (80022a4 <xTaskIncrementTick+0xf0>)
 800221e:	681b      	ldr	r3, [r3, #0]
 8002220:	2b00      	cmp	r3, #0
 8002222:	d000      	beq.n	8002226 <xTaskIncrementTick+0x72>
			xSwitchRequired = pdTRUE;
 8002224:	2601      	movs	r6, #1
}
 8002226:	0030      	movs	r0, r6
 8002228:	bdfe      	pop	{r1, r2, r3, r4, r5, r6, r7, pc}
		++uxPendedTicks;
 800222a:	4a1f      	ldr	r2, [pc, #124]	; (80022a8 <xTaskIncrementTick+0xf4>)
BaseType_t xSwitchRequired = pdFALSE;
 800222c:	2600      	movs	r6, #0
		++uxPendedTicks;
 800222e:	6813      	ldr	r3, [r2, #0]
 8002230:	3301      	adds	r3, #1
 8002232:	6013      	str	r3, [r2, #0]
 8002234:	e7f2      	b.n	800221c <xTaskIncrementTick+0x68>
					pxTCB = ( TCB_t * ) listGET_OWNER_OF_HEAD_ENTRY( pxDelayedTaskList );
 8002236:	681b      	ldr	r3, [r3, #0]
 8002238:	68db      	ldr	r3, [r3, #12]
 800223a:	68dd      	ldr	r5, [r3, #12]
					xItemValue = listGET_LIST_ITEM_VALUE( &( pxTCB->xStateListItem ) );
 800223c:	686b      	ldr	r3, [r5, #4]
					if( xConstTickCount < xItemValue )
 800223e:	429c      	cmp	r4, r3
 8002240:	d3e1      	bcc.n	8002206 <xTaskIncrementTick+0x52>
					( void ) uxListRemove( &( pxTCB->xStateListItem ) );
 8002242:	1d2b      	adds	r3, r5, #4
 8002244:	0018      	movs	r0, r3
 8002246:	9301      	str	r3, [sp, #4]
 8002248:	f7ff fabc 	bl	80017c4 <uxListRemove>
					if( listLIST_ITEM_CONTAINER( &( pxTCB->xEventListItem ) ) != NULL )
 800224c:	6aab      	ldr	r3, [r5, #40]	; 0x28
 800224e:	2b00      	cmp	r3, #0
 8002250:	d003      	beq.n	800225a <xTaskIncrementTick+0xa6>
						( void ) uxListRemove( &( pxTCB->xEventListItem ) );
 8002252:	0028      	movs	r0, r5
 8002254:	3018      	adds	r0, #24
 8002256:	f7ff fab5 	bl	80017c4 <uxListRemove>
					prvAddTaskToReadyList( pxTCB );
 800225a:	4b14      	ldr	r3, [pc, #80]	; (80022ac <xTaskIncrementTick+0xf8>)
 800225c:	6ae8      	ldr	r0, [r5, #44]	; 0x2c
 800225e:	681a      	ldr	r2, [r3, #0]
 8002260:	4290      	cmp	r0, r2
 8002262:	d900      	bls.n	8002266 <xTaskIncrementTick+0xb2>
 8002264:	6018      	str	r0, [r3, #0]
 8002266:	2314      	movs	r3, #20
 8002268:	4358      	muls	r0, r3
 800226a:	4b0d      	ldr	r3, [pc, #52]	; (80022a0 <xTaskIncrementTick+0xec>)
 800226c:	1d29      	adds	r1, r5, #4
 800226e:	1818      	adds	r0, r3, r0
 8002270:	f7ff fa85 	bl	800177e <vListInsertEnd>
						if( pxTCB->uxPriority >= pxCurrentTCB->uxPriority )
 8002274:	4b09      	ldr	r3, [pc, #36]	; (800229c <xTaskIncrementTick+0xe8>)
 8002276:	6aea      	ldr	r2, [r5, #44]	; 0x2c
 8002278:	681b      	ldr	r3, [r3, #0]
 800227a:	6adb      	ldr	r3, [r3, #44]	; 0x2c
 800227c:	429a      	cmp	r2, r3
 800227e:	d3bb      	bcc.n	80021f8 <xTaskIncrementTick+0x44>
							xSwitchRequired = pdTRUE;
 8002280:	2601      	movs	r6, #1
 8002282:	e7b9      	b.n	80021f8 <xTaskIncrementTick+0x44>
 8002284:	20000ce0 	.word	0x20000ce0
 8002288:	20000d60 	.word	0x20000d60
 800228c:	20000c40 	.word	0x20000c40
 8002290:	20000c44 	.word	0x20000c44
 8002294:	20000d1c 	.word	0x20000d1c
 8002298:	20000d18 	.word	0x20000d18
 800229c:	20000c3c 	.word	0x20000c3c
 80022a0:	20000c48 	.word	0x20000c48
 80022a4:	20000d64 	.word	0x20000d64
 80022a8:	20000cdc 	.word	0x20000cdc
 80022ac:	20000ce8 	.word	0x20000ce8

080022b0 <xTaskResumeAll>:
{
 80022b0:	b5f8      	push	{r3, r4, r5, r6, r7, lr}
	configASSERT( uxSchedulerSuspended );
 80022b2:	4c2b      	ldr	r4, [pc, #172]	; (8002360 <xTaskResumeAll+0xb0>)
 80022b4:	6823      	ldr	r3, [r4, #0]
 80022b6:	2b00      	cmp	r3, #0
 80022b8:	d101      	bne.n	80022be <xTaskResumeAll+0xe>
 80022ba:	b672      	cpsid	i
 80022bc:	e7fe      	b.n	80022bc <xTaskResumeAll+0xc>
	taskENTER_CRITICAL();
 80022be:	f7ff fad7 	bl	8001870 <vPortEnterCritical>
		--uxSchedulerSuspended;
 80022c2:	6823      	ldr	r3, [r4, #0]
 80022c4:	3b01      	subs	r3, #1
 80022c6:	6023      	str	r3, [r4, #0]
		if( uxSchedulerSuspended == ( UBaseType_t ) pdFALSE )
 80022c8:	6824      	ldr	r4, [r4, #0]
 80022ca:	2c00      	cmp	r4, #0
 80022cc:	d004      	beq.n	80022d8 <xTaskResumeAll+0x28>
BaseType_t xAlreadyYielded = pdFALSE;
 80022ce:	2400      	movs	r4, #0
	taskEXIT_CRITICAL();
 80022d0:	f7ff fada 	bl	8001888 <vPortExitCritical>
}
 80022d4:	0020      	movs	r0, r4
 80022d6:	bdf8      	pop	{r3, r4, r5, r6, r7, pc}
			if( uxCurrentNumberOfTasks > ( UBaseType_t ) 0U )
 80022d8:	4b22      	ldr	r3, [pc, #136]	; (8002364 <xTaskResumeAll+0xb4>)
 80022da:	681b      	ldr	r3, [r3, #0]
 80022dc:	2b00      	cmp	r3, #0
 80022de:	d0f6      	beq.n	80022ce <xTaskResumeAll+0x1e>
					prvAddTaskToReadyList( pxTCB );
 80022e0:	2614      	movs	r6, #20
						xYieldPending = pdTRUE;
 80022e2:	2701      	movs	r7, #1
				while( listLIST_IS_EMPTY( &xPendingReadyList ) == pdFALSE )
 80022e4:	4b20      	ldr	r3, [pc, #128]	; (8002368 <xTaskResumeAll+0xb8>)
 80022e6:	681a      	ldr	r2, [r3, #0]
 80022e8:	2a00      	cmp	r2, #0
 80022ea:	d11a      	bne.n	8002322 <xTaskResumeAll+0x72>
				if( pxTCB != NULL )
 80022ec:	2c00      	cmp	r4, #0
 80022ee:	d001      	beq.n	80022f4 <xTaskResumeAll+0x44>
					prvResetNextTaskUnblockTime();
 80022f0:	f7ff fe18 	bl	8001f24 <prvResetNextTaskUnblockTime>
					UBaseType_t uxPendedCounts = uxPendedTicks; /* Non-volatile copy. */
 80022f4:	4d1d      	ldr	r5, [pc, #116]	; (800236c <xTaskResumeAll+0xbc>)
 80022f6:	682c      	ldr	r4, [r5, #0]
					if( uxPendedCounts > ( UBaseType_t ) 0U )
 80022f8:	2c00      	cmp	r4, #0
 80022fa:	d00a      	beq.n	8002312 <xTaskResumeAll+0x62>
								xYieldPending = pdTRUE;
 80022fc:	2601      	movs	r6, #1
							if( xTaskIncrementTick() != pdFALSE )
 80022fe:	f7ff ff59 	bl	80021b4 <xTaskIncrementTick>
 8002302:	2800      	cmp	r0, #0
 8002304:	d001      	beq.n	800230a <xTaskResumeAll+0x5a>
								xYieldPending = pdTRUE;
 8002306:	4b1a      	ldr	r3, [pc, #104]	; (8002370 <xTaskResumeAll+0xc0>)
 8002308:	601e      	str	r6, [r3, #0]
							--uxPendedCounts;
 800230a:	3c01      	subs	r4, #1
						} while( uxPendedCounts > ( UBaseType_t ) 0U );
 800230c:	2c00      	cmp	r4, #0
 800230e:	d1f6      	bne.n	80022fe <xTaskResumeAll+0x4e>
						uxPendedTicks = 0;
 8002310:	602c      	str	r4, [r5, #0]
				if( xYieldPending != pdFALSE )
 8002312:	4b17      	ldr	r3, [pc, #92]	; (8002370 <xTaskResumeAll+0xc0>)
 8002314:	681b      	ldr	r3, [r3, #0]
 8002316:	2b00      	cmp	r3, #0
 8002318:	d0d9      	beq.n	80022ce <xTaskResumeAll+0x1e>
					taskYIELD_IF_USING_PREEMPTION();
 800231a:	f7ff fa9d 	bl	8001858 <vPortYield>
						xAlreadyYielded = pdTRUE;
 800231e:	2401      	movs	r4, #1
 8002320:	e7d6      	b.n	80022d0 <xTaskResumeAll+0x20>
					pxTCB = ( TCB_t * ) listGET_OWNER_OF_HEAD_ENTRY( ( &xPendingReadyList ) );
 8002322:	68db      	ldr	r3, [r3, #12]
 8002324:	68dc      	ldr	r4, [r3, #12]
					( void ) uxListRemove( &( pxTCB->xEventListItem ) );
 8002326:	0020      	movs	r0, r4
					( void ) uxListRemove( &( pxTCB->xStateListItem ) );
 8002328:	1d25      	adds	r5, r4, #4
					( void ) uxListRemove( &( pxTCB->xEventListItem ) );
 800232a:	3018      	adds	r0, #24
 800232c:	f7ff fa4a 	bl	80017c4 <uxListRemove>
					( void ) uxListRemove( &( pxTCB->xStateListItem ) );
 8002330:	0028      	movs	r0, r5
 8002332:	f7ff fa47 	bl	80017c4 <uxListRemove>
					prvAddTaskToReadyList( pxTCB );
 8002336:	4b0f      	ldr	r3, [pc, #60]	; (8002374 <xTaskResumeAll+0xc4>)
 8002338:	6ae0      	ldr	r0, [r4, #44]	; 0x2c
 800233a:	681a      	ldr	r2, [r3, #0]
 800233c:	4290      	cmp	r0, r2
 800233e:	d900      	bls.n	8002342 <xTaskResumeAll+0x92>
 8002340:	6018      	str	r0, [r3, #0]
 8002342:	4370      	muls	r0, r6
 8002344:	4b0c      	ldr	r3, [pc, #48]	; (8002378 <xTaskResumeAll+0xc8>)
 8002346:	0029      	movs	r1, r5
 8002348:	1818      	adds	r0, r3, r0
 800234a:	f7ff fa18 	bl	800177e <vListInsertEnd>
					if( pxTCB->uxPriority >= pxCurrentTCB->uxPriority )
 800234e:	4b0b      	ldr	r3, [pc, #44]	; (800237c <xTaskResumeAll+0xcc>)
 8002350:	6ae2      	ldr	r2, [r4, #44]	; 0x2c
 8002352:	681b      	ldr	r3, [r3, #0]
 8002354:	6adb      	ldr	r3, [r3, #44]	; 0x2c
 8002356:	429a      	cmp	r2, r3
 8002358:	d3c4      	bcc.n	80022e4 <xTaskResumeAll+0x34>
						xYieldPending = pdTRUE;
 800235a:	4b05      	ldr	r3, [pc, #20]	; (8002370 <xTaskResumeAll+0xc0>)
 800235c:	601f      	str	r7, [r3, #0]
 800235e:	e7c1      	b.n	80022e4 <xTaskResumeAll+0x34>
 8002360:	20000ce0 	.word	0x20000ce0
 8002364:	20000cd4 	.word	0x20000cd4
 8002368:	20000d20 	.word	0x20000d20
 800236c:	20000cdc 	.word	0x20000cdc
 8002370:	20000d64 	.word	0x20000d64
 8002374:	20000ce8 	.word	0x20000ce8
 8002378:	20000c48 	.word	0x20000c48
 800237c:	20000c3c 	.word	0x20000c3c

08002380 <vTaskDelayUntil>:
	{
 8002380:	b570      	push	{r4, r5, r6, lr}
 8002382:	0005      	movs	r5, r0
 8002384:	000c      	movs	r4, r1
		configASSERT( pxPreviousWakeTime );
 8002386:	2800      	cmp	r0, #0
 8002388:	d101      	bne.n	800238e <vTaskDelayUntil+0xe>
 800238a:	b672      	cpsid	i
 800238c:	e7fe      	b.n	800238c <vTaskDelayUntil+0xc>
		configASSERT( ( xTimeIncrement > 0U ) );
 800238e:	2900      	cmp	r1, #0
 8002390:	d101      	bne.n	8002396 <vTaskDelayUntil+0x16>
 8002392:	b672      	cpsid	i
 8002394:	e7fe      	b.n	8002394 <vTaskDelayUntil+0x14>
		configASSERT( uxSchedulerSuspended == 0 );
 8002396:	4b12      	ldr	r3, [pc, #72]	; (80023e0 <vTaskDelayUntil+0x60>)
 8002398:	681e      	ldr	r6, [r3, #0]
 800239a:	2e00      	cmp	r6, #0
 800239c:	d001      	beq.n	80023a2 <vTaskDelayUntil+0x22>
 800239e:	b672      	cpsid	i
 80023a0:	e7fe      	b.n	80023a0 <vTaskDelayUntil+0x20>
		vTaskSuspendAll();
 80023a2:	f7ff fef9 	bl	8002198 <vTaskSuspendAll>
			const TickType_t xConstTickCount = xTickCount;
 80023a6:	4b0f      	ldr	r3, [pc, #60]	; (80023e4 <vTaskDelayUntil+0x64>)
			xTimeToWake = *pxPreviousWakeTime + xTimeIncrement;
 80023a8:	682a      	ldr	r2, [r5, #0]
			const TickType_t xConstTickCount = xTickCount;
 80023aa:	6818      	ldr	r0, [r3, #0]
			xTimeToWake = *pxPreviousWakeTime + xTimeIncrement;
 80023ac:	18a4      	adds	r4, r4, r2
			if( xConstTickCount < *pxPreviousWakeTime )
 80023ae:	4290      	cmp	r0, r2
 80023b0:	d205      	bcs.n	80023be <vTaskDelayUntil+0x3e>
				if( ( xTimeToWake < *pxPreviousWakeTime ) && ( xTimeToWake > xConstTickCount ) )
 80023b2:	42a2      	cmp	r2, r4
 80023b4:	d906      	bls.n	80023c4 <vTaskDelayUntil+0x44>
				if( ( xTimeToWake < *pxPreviousWakeTime ) || ( xTimeToWake > xConstTickCount ) )
 80023b6:	42a0      	cmp	r0, r4
 80023b8:	41b6      	sbcs	r6, r6
 80023ba:	4276      	negs	r6, r6
 80023bc:	e002      	b.n	80023c4 <vTaskDelayUntil+0x44>
					xShouldDelay = pdTRUE;
 80023be:	2601      	movs	r6, #1
				if( ( xTimeToWake < *pxPreviousWakeTime ) || ( xTimeToWake > xConstTickCount ) )
 80023c0:	42a2      	cmp	r2, r4
 80023c2:	d9f8      	bls.n	80023b6 <vTaskDelayUntil+0x36>
			*pxPreviousWakeTime = xTimeToWake;
 80023c4:	602c      	str	r4, [r5, #0]
			if( xShouldDelay != pdFALSE )
 80023c6:	2e00      	cmp	r6, #0
 80023c8:	d003      	beq.n	80023d2 <vTaskDelayUntil+0x52>
				prvAddCurrentTaskToDelayedList( xTimeToWake - xConstTickCount, pdFALSE );
 80023ca:	1a20      	subs	r0, r4, r0
 80023cc:	2100      	movs	r1, #0
 80023ce:	f7ff fdbd 	bl	8001f4c <prvAddCurrentTaskToDelayedList>
		xAlreadyYielded = xTaskResumeAll();
 80023d2:	f7ff ff6d 	bl	80022b0 <xTaskResumeAll>
		if( xAlreadyYielded == pdFALSE )
 80023d6:	2800      	cmp	r0, #0
 80023d8:	d101      	bne.n	80023de <vTaskDelayUntil+0x5e>
			portYIELD_WITHIN_API();
 80023da:	f7ff fa3d 	bl	8001858 <vPortYield>
	}
 80023de:	bd70      	pop	{r4, r5, r6, pc}
 80023e0:	20000ce0 	.word	0x20000ce0
 80023e4:	20000d60 	.word	0x20000d60

080023e8 <prvIdleTask>:
{
 80023e8:	b570      	push	{r4, r5, r6, lr}
		while( uxDeletedTasksWaitingCleanUp > ( UBaseType_t ) 0U )
 80023ea:	4c15      	ldr	r4, [pc, #84]	; (8002440 <prvIdleTask+0x58>)
 80023ec:	6823      	ldr	r3, [r4, #0]
 80023ee:	2b00      	cmp	r3, #0
 80023f0:	d106      	bne.n	8002400 <prvIdleTask+0x18>
			if( listCURRENT_LIST_LENGTH( &( pxReadyTasksLists[ tskIDLE_PRIORITY ] ) ) > ( UBaseType_t ) 1 )
 80023f2:	4b14      	ldr	r3, [pc, #80]	; (8002444 <prvIdleTask+0x5c>)
 80023f4:	681b      	ldr	r3, [r3, #0]
 80023f6:	2b01      	cmp	r3, #1
 80023f8:	d9f7      	bls.n	80023ea <prvIdleTask+0x2>
				taskYIELD();
 80023fa:	f7ff fa2d 	bl	8001858 <vPortYield>
 80023fe:	e7f4      	b.n	80023ea <prvIdleTask+0x2>
			vTaskSuspendAll();
 8002400:	f7ff feca 	bl	8002198 <vTaskSuspendAll>
				xListIsEmpty = listLIST_IS_EMPTY( &xTasksWaitingTermination );
 8002404:	4d10      	ldr	r5, [pc, #64]	; (8002448 <prvIdleTask+0x60>)
 8002406:	682e      	ldr	r6, [r5, #0]
			( void ) xTaskResumeAll();
 8002408:	f7ff ff52 	bl	80022b0 <xTaskResumeAll>
			if( xListIsEmpty == pdFALSE )
 800240c:	2e00      	cmp	r6, #0
 800240e:	d0ec      	beq.n	80023ea <prvIdleTask+0x2>
				taskENTER_CRITICAL();
 8002410:	f7ff fa2e 	bl	8001870 <vPortEnterCritical>
					pxTCB = ( TCB_t * ) listGET_OWNER_OF_HEAD_ENTRY( ( &xTasksWaitingTermination ) );
 8002414:	68eb      	ldr	r3, [r5, #12]
 8002416:	68dd      	ldr	r5, [r3, #12]
					( void ) uxListRemove( &( pxTCB->xStateListItem ) );
 8002418:	1d28      	adds	r0, r5, #4
 800241a:	f7ff f9d3 	bl	80017c4 <uxListRemove>
					--uxCurrentNumberOfTasks;
 800241e:	4a0b      	ldr	r2, [pc, #44]	; (800244c <prvIdleTask+0x64>)
 8002420:	6813      	ldr	r3, [r2, #0]
 8002422:	3b01      	subs	r3, #1
 8002424:	6013      	str	r3, [r2, #0]
					--uxDeletedTasksWaitingCleanUp;
 8002426:	6823      	ldr	r3, [r4, #0]
 8002428:	3b01      	subs	r3, #1
 800242a:	6023      	str	r3, [r4, #0]
				taskEXIT_CRITICAL();
 800242c:	f7ff fa2c 	bl	8001888 <vPortExitCritical>
			vPortFree( pxTCB->pxStack );
 8002430:	6b28      	ldr	r0, [r5, #48]	; 0x30
 8002432:	f7ff fb4d 	bl	8001ad0 <vPortFree>
			vPortFree( pxTCB );
 8002436:	0028      	movs	r0, r5
 8002438:	f7ff fb4a 	bl	8001ad0 <vPortFree>
 800243c:	e7d5      	b.n	80023ea <prvIdleTask+0x2>
 800243e:	46c0      	nop			; (mov r8, r8)
 8002440:	20000cd8 	.word	0x20000cd8
 8002444:	20000c48 	.word	0x20000c48
 8002448:	20000d4c 	.word	0x20000d4c
 800244c:	20000cd4 	.word	0x20000cd4

08002450 <vTaskSwitchContext>:
	if( uxSchedulerSuspended != ( UBaseType_t ) pdFALSE )
 8002450:	4b15      	ldr	r3, [pc, #84]	; (80024a8 <vTaskSwitchContext+0x58>)
{
 8002452:	b530      	push	{r4, r5, lr}
	if( uxSchedulerSuspended != ( UBaseType_t ) pdFALSE )
 8002454:	681a      	ldr	r2, [r3, #0]
 8002456:	4b15      	ldr	r3, [pc, #84]	; (80024ac <vTaskSwitchContext+0x5c>)
 8002458:	2a00      	cmp	r2, #0
 800245a:	d002      	beq.n	8002462 <vTaskSwitchContext+0x12>
		xYieldPending = pdTRUE;
 800245c:	2201      	movs	r2, #1
 800245e:	601a      	str	r2, [r3, #0]
}
 8002460:	bd30      	pop	{r4, r5, pc}
 8002462:	2414      	movs	r4, #20
		taskSELECT_HIGHEST_PRIORITY_TASK();
 8002464:	4812      	ldr	r0, [pc, #72]	; (80024b0 <vTaskSwitchContext+0x60>)
		xYieldPending = pdFALSE;
 8002466:	601a      	str	r2, [r3, #0]
		taskSELECT_HIGHEST_PRIORITY_TASK();
 8002468:	6802      	ldr	r2, [r0, #0]
 800246a:	4912      	ldr	r1, [pc, #72]	; (80024b4 <vTaskSwitchContext+0x64>)
 800246c:	0023      	movs	r3, r4
 800246e:	4353      	muls	r3, r2
 8002470:	585d      	ldr	r5, [r3, r1]
 8002472:	2d00      	cmp	r5, #0
 8002474:	d012      	beq.n	800249c <vTaskSwitchContext+0x4c>
 8002476:	18cc      	adds	r4, r1, r3
 8002478:	6865      	ldr	r5, [r4, #4]
 800247a:	3308      	adds	r3, #8
 800247c:	686d      	ldr	r5, [r5, #4]
 800247e:	18cb      	adds	r3, r1, r3
 8002480:	6065      	str	r5, [r4, #4]
 8002482:	429d      	cmp	r5, r3
 8002484:	d101      	bne.n	800248a <vTaskSwitchContext+0x3a>
 8002486:	686b      	ldr	r3, [r5, #4]
 8002488:	6063      	str	r3, [r4, #4]
 800248a:	2314      	movs	r3, #20
 800248c:	4353      	muls	r3, r2
 800248e:	18c9      	adds	r1, r1, r3
 8002490:	684b      	ldr	r3, [r1, #4]
 8002492:	68d9      	ldr	r1, [r3, #12]
 8002494:	4b08      	ldr	r3, [pc, #32]	; (80024b8 <vTaskSwitchContext+0x68>)
 8002496:	6019      	str	r1, [r3, #0]
 8002498:	6002      	str	r2, [r0, #0]
}
 800249a:	e7e1      	b.n	8002460 <vTaskSwitchContext+0x10>
		taskSELECT_HIGHEST_PRIORITY_TASK();
 800249c:	2a00      	cmp	r2, #0
 800249e:	d101      	bne.n	80024a4 <vTaskSwitchContext+0x54>
 80024a0:	b672      	cpsid	i
 80024a2:	e7fe      	b.n	80024a2 <vTaskSwitchContext+0x52>
 80024a4:	3a01      	subs	r2, #1
 80024a6:	e7e1      	b.n	800246c <vTaskSwitchContext+0x1c>
 80024a8:	20000ce0 	.word	0x20000ce0
 80024ac:	20000d64 	.word	0x20000d64
 80024b0:	20000ce8 	.word	0x20000ce8
 80024b4:	20000c48 	.word	0x20000c48
 80024b8:	20000c3c 	.word	0x20000c3c

080024bc <vTaskPlaceOnEventList>:
{
 80024bc:	b510      	push	{r4, lr}
 80024be:	000c      	movs	r4, r1
	configASSERT( pxEventList );
 80024c0:	2800      	cmp	r0, #0
 80024c2:	d101      	bne.n	80024c8 <vTaskPlaceOnEventList+0xc>
 80024c4:	b672      	cpsid	i
 80024c6:	e7fe      	b.n	80024c6 <vTaskPlaceOnEventList+0xa>
	vListInsert( pxEventList, &( pxCurrentTCB->xEventListItem ) );
 80024c8:	4b04      	ldr	r3, [pc, #16]	; (80024dc <vTaskPlaceOnEventList+0x20>)
 80024ca:	6819      	ldr	r1, [r3, #0]
 80024cc:	3118      	adds	r1, #24
 80024ce:	f7ff f962 	bl	8001796 <vListInsert>
	prvAddCurrentTaskToDelayedList( xTicksToWait, pdTRUE );
 80024d2:	2101      	movs	r1, #1
 80024d4:	0020      	movs	r0, r4
 80024d6:	f7ff fd39 	bl	8001f4c <prvAddCurrentTaskToDelayedList>
}
 80024da:	bd10      	pop	{r4, pc}
 80024dc:	20000c3c 	.word	0x20000c3c

080024e0 <xTaskRemoveFromEventList>:
	pxUnblockedTCB = ( TCB_t * ) listGET_OWNER_OF_HEAD_ENTRY( pxEventList );
 80024e0:	68c3      	ldr	r3, [r0, #12]
{
 80024e2:	b570      	push	{r4, r5, r6, lr}
	pxUnblockedTCB = ( TCB_t * ) listGET_OWNER_OF_HEAD_ENTRY( pxEventList );
 80024e4:	68dc      	ldr	r4, [r3, #12]
	configASSERT( pxUnblockedTCB );
 80024e6:	2c00      	cmp	r4, #0
 80024e8:	d101      	bne.n	80024ee <xTaskRemoveFromEventList+0xe>
 80024ea:	b672      	cpsid	i
 80024ec:	e7fe      	b.n	80024ec <xTaskRemoveFromEventList+0xc>
	( void ) uxListRemove( &( pxUnblockedTCB->xEventListItem ) );
 80024ee:	0025      	movs	r5, r4
 80024f0:	3518      	adds	r5, #24
 80024f2:	0028      	movs	r0, r5
 80024f4:	f7ff f966 	bl	80017c4 <uxListRemove>
	if( uxSchedulerSuspended == ( UBaseType_t ) pdFALSE )
 80024f8:	4b11      	ldr	r3, [pc, #68]	; (8002540 <xTaskRemoveFromEventList+0x60>)
 80024fa:	681b      	ldr	r3, [r3, #0]
 80024fc:	2b00      	cmp	r3, #0
 80024fe:	d11b      	bne.n	8002538 <xTaskRemoveFromEventList+0x58>
		( void ) uxListRemove( &( pxUnblockedTCB->xStateListItem ) );
 8002500:	1d25      	adds	r5, r4, #4
 8002502:	0028      	movs	r0, r5
 8002504:	f7ff f95e 	bl	80017c4 <uxListRemove>
		prvAddTaskToReadyList( pxUnblockedTCB );
 8002508:	4a0e      	ldr	r2, [pc, #56]	; (8002544 <xTaskRemoveFromEventList+0x64>)
 800250a:	6ae3      	ldr	r3, [r4, #44]	; 0x2c
 800250c:	6811      	ldr	r1, [r2, #0]
 800250e:	428b      	cmp	r3, r1
 8002510:	d900      	bls.n	8002514 <xTaskRemoveFromEventList+0x34>
 8002512:	6013      	str	r3, [r2, #0]
 8002514:	2014      	movs	r0, #20
 8002516:	0029      	movs	r1, r5
 8002518:	4343      	muls	r3, r0
 800251a:	480b      	ldr	r0, [pc, #44]	; (8002548 <xTaskRemoveFromEventList+0x68>)
 800251c:	18c0      	adds	r0, r0, r3
		vListInsertEnd( &( xPendingReadyList ), &( pxUnblockedTCB->xEventListItem ) );
 800251e:	f7ff f92e 	bl	800177e <vListInsertEnd>
	if( pxUnblockedTCB->uxPriority > pxCurrentTCB->uxPriority )
 8002522:	4b0a      	ldr	r3, [pc, #40]	; (800254c <xTaskRemoveFromEventList+0x6c>)
 8002524:	6ae2      	ldr	r2, [r4, #44]	; 0x2c
 8002526:	681b      	ldr	r3, [r3, #0]
		xReturn = pdFALSE;
 8002528:	2000      	movs	r0, #0
	if( pxUnblockedTCB->uxPriority > pxCurrentTCB->uxPriority )
 800252a:	6adb      	ldr	r3, [r3, #44]	; 0x2c
 800252c:	429a      	cmp	r2, r3
 800252e:	d902      	bls.n	8002536 <xTaskRemoveFromEventList+0x56>
		xYieldPending = pdTRUE;
 8002530:	4b07      	ldr	r3, [pc, #28]	; (8002550 <xTaskRemoveFromEventList+0x70>)
 8002532:	3001      	adds	r0, #1
 8002534:	6018      	str	r0, [r3, #0]
}
 8002536:	bd70      	pop	{r4, r5, r6, pc}
		vListInsertEnd( &( xPendingReadyList ), &( pxUnblockedTCB->xEventListItem ) );
 8002538:	0029      	movs	r1, r5
 800253a:	4806      	ldr	r0, [pc, #24]	; (8002554 <xTaskRemoveFromEventList+0x74>)
 800253c:	e7ef      	b.n	800251e <xTaskRemoveFromEventList+0x3e>
 800253e:	46c0      	nop			; (mov r8, r8)
 8002540:	20000ce0 	.word	0x20000ce0
 8002544:	20000ce8 	.word	0x20000ce8
 8002548:	20000c48 	.word	0x20000c48
 800254c:	20000c3c 	.word	0x20000c3c
 8002550:	20000d64 	.word	0x20000d64
 8002554:	20000d20 	.word	0x20000d20

08002558 <vTaskSetTimeOutState>:
	configASSERT( pxTimeOut );
 8002558:	2800      	cmp	r0, #0
 800255a:	d101      	bne.n	8002560 <vTaskSetTimeOutState+0x8>
 800255c:	b672      	cpsid	i
 800255e:	e7fe      	b.n	800255e <vTaskSetTimeOutState+0x6>
	pxTimeOut->xOverflowCount = xNumOfOverflows;
 8002560:	4b03      	ldr	r3, [pc, #12]	; (8002570 <vTaskSetTimeOutState+0x18>)
 8002562:	681b      	ldr	r3, [r3, #0]
 8002564:	6003      	str	r3, [r0, #0]
	pxTimeOut->xTimeOnEntering = xTickCount;
 8002566:	4b03      	ldr	r3, [pc, #12]	; (8002574 <vTaskSetTimeOutState+0x1c>)
 8002568:	681b      	ldr	r3, [r3, #0]
 800256a:	6043      	str	r3, [r0, #4]
}
 800256c:	4770      	bx	lr
 800256e:	46c0      	nop			; (mov r8, r8)
 8002570:	20000d1c 	.word	0x20000d1c
 8002574:	20000d60 	.word	0x20000d60

08002578 <xTaskCheckForTimeOut>:
{
 8002578:	b570      	push	{r4, r5, r6, lr}
 800257a:	0004      	movs	r4, r0
 800257c:	000d      	movs	r5, r1
	configASSERT( pxTimeOut );
 800257e:	2800      	cmp	r0, #0
 8002580:	d101      	bne.n	8002586 <xTaskCheckForTimeOut+0xe>
 8002582:	b672      	cpsid	i
 8002584:	e7fe      	b.n	8002584 <xTaskCheckForTimeOut+0xc>
	configASSERT( pxTicksToWait );
 8002586:	2900      	cmp	r1, #0
 8002588:	d101      	bne.n	800258e <xTaskCheckForTimeOut+0x16>
 800258a:	b672      	cpsid	i
 800258c:	e7fe      	b.n	800258c <xTaskCheckForTimeOut+0x14>
	taskENTER_CRITICAL();
 800258e:	f7ff f96f 	bl	8001870 <vPortEnterCritical>
		const TickType_t xConstTickCount = xTickCount;
 8002592:	4b0f      	ldr	r3, [pc, #60]	; (80025d0 <xTaskCheckForTimeOut+0x58>)
				xReturn = pdFALSE;
 8002594:	2600      	movs	r6, #0
		const TickType_t xConstTickCount = xTickCount;
 8002596:	6819      	ldr	r1, [r3, #0]
			if( *pxTicksToWait == portMAX_DELAY )
 8002598:	682b      	ldr	r3, [r5, #0]
 800259a:	1c5a      	adds	r2, r3, #1
 800259c:	d013      	beq.n	80025c6 <xTaskCheckForTimeOut+0x4e>
		if( ( xNumOfOverflows != pxTimeOut->xOverflowCount ) && ( xConstTickCount >= pxTimeOut->xTimeOnEntering ) ) /*lint !e525 Indentation preferred as is to make code within pre-processor directives clearer. */
 800259e:	4a0d      	ldr	r2, [pc, #52]	; (80025d4 <xTaskCheckForTimeOut+0x5c>)
 80025a0:	6826      	ldr	r6, [r4, #0]
 80025a2:	6810      	ldr	r0, [r2, #0]
 80025a4:	6862      	ldr	r2, [r4, #4]
 80025a6:	4286      	cmp	r6, r0
 80025a8:	d002      	beq.n	80025b0 <xTaskCheckForTimeOut+0x38>
			xReturn = pdTRUE;
 80025aa:	2601      	movs	r6, #1
		if( ( xNumOfOverflows != pxTimeOut->xOverflowCount ) && ( xConstTickCount >= pxTimeOut->xTimeOnEntering ) ) /*lint !e525 Indentation preferred as is to make code within pre-processor directives clearer. */
 80025ac:	4291      	cmp	r1, r2
 80025ae:	d20a      	bcs.n	80025c6 <xTaskCheckForTimeOut+0x4e>
		else if( ( ( TickType_t ) ( xConstTickCount - pxTimeOut->xTimeOnEntering ) ) < *pxTicksToWait ) /*lint !e961 Explicit casting is only redundant with some compilers, whereas others require it to prevent integer conversion errors. */
 80025b0:	1a88      	subs	r0, r1, r2
			xReturn = pdTRUE;
 80025b2:	2601      	movs	r6, #1
		else if( ( ( TickType_t ) ( xConstTickCount - pxTimeOut->xTimeOnEntering ) ) < *pxTicksToWait ) /*lint !e961 Explicit casting is only redundant with some compilers, whereas others require it to prevent integer conversion errors. */
 80025b4:	4283      	cmp	r3, r0
 80025b6:	d906      	bls.n	80025c6 <xTaskCheckForTimeOut+0x4e>
			*pxTicksToWait -= ( xConstTickCount - pxTimeOut->xTimeOnEntering );
 80025b8:	1a5b      	subs	r3, r3, r1
 80025ba:	189b      	adds	r3, r3, r2
 80025bc:	602b      	str	r3, [r5, #0]
			vTaskSetTimeOutState( pxTimeOut );
 80025be:	0020      	movs	r0, r4
 80025c0:	f7ff ffca 	bl	8002558 <vTaskSetTimeOutState>
			xReturn = pdFALSE;
 80025c4:	2600      	movs	r6, #0
	taskEXIT_CRITICAL();
 80025c6:	f7ff f95f 	bl	8001888 <vPortExitCritical>
}
 80025ca:	0030      	movs	r0, r6
 80025cc:	bd70      	pop	{r4, r5, r6, pc}
 80025ce:	46c0      	nop			; (mov r8, r8)
 80025d0:	20000d60 	.word	0x20000d60
 80025d4:	20000d1c 	.word	0x20000d1c

080025d8 <vTaskMissedYield>:
	xYieldPending = pdTRUE;
 80025d8:	2201      	movs	r2, #1
 80025da:	4b01      	ldr	r3, [pc, #4]	; (80025e0 <vTaskMissedYield+0x8>)
 80025dc:	601a      	str	r2, [r3, #0]
}
 80025de:	4770      	bx	lr
 80025e0:	20000d64 	.word	0x20000d64

080025e4 <xTaskGetSchedulerState>:
		if( xSchedulerRunning == pdFALSE )
 80025e4:	4b05      	ldr	r3, [pc, #20]	; (80025fc <xTaskGetSchedulerState+0x18>)
			xReturn = taskSCHEDULER_NOT_STARTED;
 80025e6:	2001      	movs	r0, #1
		if( xSchedulerRunning == pdFALSE )
 80025e8:	681b      	ldr	r3, [r3, #0]
 80025ea:	2b00      	cmp	r3, #0
 80025ec:	d004      	beq.n	80025f8 <xTaskGetSchedulerState+0x14>
			if( uxSchedulerSuspended == ( UBaseType_t ) pdFALSE )
 80025ee:	4b04      	ldr	r3, [pc, #16]	; (8002600 <xTaskGetSchedulerState+0x1c>)
 80025f0:	6818      	ldr	r0, [r3, #0]
				xReturn = taskSCHEDULER_SUSPENDED;
 80025f2:	4243      	negs	r3, r0
 80025f4:	4158      	adcs	r0, r3
 80025f6:	0040      	lsls	r0, r0, #1
	}
 80025f8:	4770      	bx	lr
 80025fa:	46c0      	nop			; (mov r8, r8)
 80025fc:	20000d34 	.word	0x20000d34
 8002600:	20000ce0 	.word	0x20000ce0

08002604 <vTaskPriorityInherit>:
	{
 8002604:	b5f8      	push	{r3, r4, r5, r6, r7, lr}
 8002606:	1e04      	subs	r4, r0, #0
		if( pxMutexHolder != NULL )
 8002608:	d026      	beq.n	8002658 <vTaskPriorityInherit+0x54>
			if( pxTCB->uxPriority < pxCurrentTCB->uxPriority )
 800260a:	4f16      	ldr	r7, [pc, #88]	; (8002664 <vTaskPriorityInherit+0x60>)
 800260c:	6ac1      	ldr	r1, [r0, #44]	; 0x2c
 800260e:	683b      	ldr	r3, [r7, #0]
 8002610:	6adb      	ldr	r3, [r3, #44]	; 0x2c
 8002612:	4299      	cmp	r1, r3
 8002614:	d220      	bcs.n	8002658 <vTaskPriorityInherit+0x54>
				if( ( listGET_LIST_ITEM_VALUE( &( pxTCB->xEventListItem ) ) & taskEVENT_LIST_ITEM_VALUE_IN_USE ) == 0UL )
 8002616:	6983      	ldr	r3, [r0, #24]
 8002618:	2b00      	cmp	r3, #0
 800261a:	db04      	blt.n	8002626 <vTaskPriorityInherit+0x22>
					listSET_LIST_ITEM_VALUE( &( pxTCB->xEventListItem ), ( TickType_t ) configMAX_PRIORITIES - ( TickType_t ) pxCurrentTCB->uxPriority ); /*lint !e961 MISRA exception as the casts are only redundant for some ports. */
 800261c:	2207      	movs	r2, #7
 800261e:	683b      	ldr	r3, [r7, #0]
 8002620:	6adb      	ldr	r3, [r3, #44]	; 0x2c
 8002622:	1ad2      	subs	r2, r2, r3
 8002624:	6182      	str	r2, [r0, #24]
				if( listIS_CONTAINED_WITHIN( &( pxReadyTasksLists[ pxTCB->uxPriority ] ), &( pxTCB->xStateListItem ) ) != pdFALSE )
 8002626:	2314      	movs	r3, #20
 8002628:	434b      	muls	r3, r1
 800262a:	4e0f      	ldr	r6, [pc, #60]	; (8002668 <vTaskPriorityInherit+0x64>)
 800262c:	6962      	ldr	r2, [r4, #20]
 800262e:	18f3      	adds	r3, r6, r3
 8002630:	429a      	cmp	r2, r3
 8002632:	d112      	bne.n	800265a <vTaskPriorityInherit+0x56>
					if( uxListRemove( &( pxTCB->xStateListItem ) ) == ( UBaseType_t ) 0 )
 8002634:	1d25      	adds	r5, r4, #4
 8002636:	0028      	movs	r0, r5
 8002638:	f7ff f8c4 	bl	80017c4 <uxListRemove>
					pxTCB->uxPriority = pxCurrentTCB->uxPriority;
 800263c:	683b      	ldr	r3, [r7, #0]
					prvAddTaskToReadyList( pxTCB );
 800263e:	4a0b      	ldr	r2, [pc, #44]	; (800266c <vTaskPriorityInherit+0x68>)
					pxTCB->uxPriority = pxCurrentTCB->uxPriority;
 8002640:	6adb      	ldr	r3, [r3, #44]	; 0x2c
					prvAddTaskToReadyList( pxTCB );
 8002642:	6811      	ldr	r1, [r2, #0]
					pxTCB->uxPriority = pxCurrentTCB->uxPriority;
 8002644:	62e3      	str	r3, [r4, #44]	; 0x2c
					prvAddTaskToReadyList( pxTCB );
 8002646:	428b      	cmp	r3, r1
 8002648:	d900      	bls.n	800264c <vTaskPriorityInherit+0x48>
 800264a:	6013      	str	r3, [r2, #0]
 800264c:	2014      	movs	r0, #20
 800264e:	4358      	muls	r0, r3
 8002650:	0029      	movs	r1, r5
 8002652:	1830      	adds	r0, r6, r0
 8002654:	f7ff f893 	bl	800177e <vListInsertEnd>
	}
 8002658:	bdf8      	pop	{r3, r4, r5, r6, r7, pc}
					pxTCB->uxPriority = pxCurrentTCB->uxPriority;
 800265a:	683b      	ldr	r3, [r7, #0]
 800265c:	6adb      	ldr	r3, [r3, #44]	; 0x2c
 800265e:	62e3      	str	r3, [r4, #44]	; 0x2c
 8002660:	e7fa      	b.n	8002658 <vTaskPriorityInherit+0x54>
 8002662:	46c0      	nop			; (mov r8, r8)
 8002664:	20000c3c 	.word	0x20000c3c
 8002668:	20000c48 	.word	0x20000c48
 800266c:	20000ce8 	.word	0x20000ce8

08002670 <xTaskPriorityDisinherit>:
	{
 8002670:	b570      	push	{r4, r5, r6, lr}
 8002672:	1e04      	subs	r4, r0, #0
		if( pxMutexHolder != NULL )
 8002674:	d101      	bne.n	800267a <xTaskPriorityDisinherit+0xa>
	BaseType_t xReturn = pdFALSE;
 8002676:	2000      	movs	r0, #0
	}
 8002678:	bd70      	pop	{r4, r5, r6, pc}
			configASSERT( pxTCB == pxCurrentTCB );
 800267a:	4b15      	ldr	r3, [pc, #84]	; (80026d0 <xTaskPriorityDisinherit+0x60>)
 800267c:	681b      	ldr	r3, [r3, #0]
 800267e:	4298      	cmp	r0, r3
 8002680:	d001      	beq.n	8002686 <xTaskPriorityDisinherit+0x16>
 8002682:	b672      	cpsid	i
 8002684:	e7fe      	b.n	8002684 <xTaskPriorityDisinherit+0x14>
			configASSERT( pxTCB->uxMutexesHeld );
 8002686:	6c83      	ldr	r3, [r0, #72]	; 0x48
 8002688:	2b00      	cmp	r3, #0
 800268a:	d101      	bne.n	8002690 <xTaskPriorityDisinherit+0x20>
 800268c:	b672      	cpsid	i
 800268e:	e7fe      	b.n	800268e <xTaskPriorityDisinherit+0x1e>
			if( pxTCB->uxPriority != pxTCB->uxBasePriority )
 8002690:	6ac2      	ldr	r2, [r0, #44]	; 0x2c
 8002692:	6c41      	ldr	r1, [r0, #68]	; 0x44
			( pxTCB->uxMutexesHeld )--;
 8002694:	3b01      	subs	r3, #1
 8002696:	6483      	str	r3, [r0, #72]	; 0x48
			if( pxTCB->uxPriority != pxTCB->uxBasePriority )
 8002698:	428a      	cmp	r2, r1
 800269a:	d0ec      	beq.n	8002676 <xTaskPriorityDisinherit+0x6>
				if( pxTCB->uxMutexesHeld == ( UBaseType_t ) 0 )
 800269c:	2b00      	cmp	r3, #0
 800269e:	d1ea      	bne.n	8002676 <xTaskPriorityDisinherit+0x6>
					if( uxListRemove( &( pxTCB->xStateListItem ) ) == ( UBaseType_t ) 0 )
 80026a0:	1d05      	adds	r5, r0, #4
 80026a2:	0028      	movs	r0, r5
 80026a4:	f7ff f88e 	bl	80017c4 <uxListRemove>
					listSET_LIST_ITEM_VALUE( &( pxTCB->xEventListItem ), ( TickType_t ) configMAX_PRIORITIES - ( TickType_t ) pxTCB->uxPriority ); /*lint !e961 MISRA exception as the casts are only redundant for some ports. */
 80026a8:	2307      	movs	r3, #7
					pxTCB->uxPriority = pxTCB->uxBasePriority;
 80026aa:	6c60      	ldr	r0, [r4, #68]	; 0x44
					listSET_LIST_ITEM_VALUE( &( pxTCB->xEventListItem ), ( TickType_t ) configMAX_PRIORITIES - ( TickType_t ) pxTCB->uxPriority ); /*lint !e961 MISRA exception as the casts are only redundant for some ports. */
 80026ac:	1a1b      	subs	r3, r3, r0
 80026ae:	61a3      	str	r3, [r4, #24]
					prvAddTaskToReadyList( pxTCB );
 80026b0:	4b08      	ldr	r3, [pc, #32]	; (80026d4 <xTaskPriorityDisinherit+0x64>)
					pxTCB->uxPriority = pxTCB->uxBasePriority;
 80026b2:	62e0      	str	r0, [r4, #44]	; 0x2c
					prvAddTaskToReadyList( pxTCB );
 80026b4:	681a      	ldr	r2, [r3, #0]
 80026b6:	4290      	cmp	r0, r2
 80026b8:	d900      	bls.n	80026bc <xTaskPriorityDisinherit+0x4c>
 80026ba:	6018      	str	r0, [r3, #0]
 80026bc:	2314      	movs	r3, #20
 80026be:	4343      	muls	r3, r0
 80026c0:	4805      	ldr	r0, [pc, #20]	; (80026d8 <xTaskPriorityDisinherit+0x68>)
 80026c2:	0029      	movs	r1, r5
 80026c4:	18c0      	adds	r0, r0, r3
 80026c6:	f7ff f85a 	bl	800177e <vListInsertEnd>
					xReturn = pdTRUE;
 80026ca:	2001      	movs	r0, #1
		return xReturn;
 80026cc:	e7d4      	b.n	8002678 <xTaskPriorityDisinherit+0x8>
 80026ce:	46c0      	nop			; (mov r8, r8)
 80026d0:	20000c3c 	.word	0x20000c3c
 80026d4:	20000ce8 	.word	0x20000ce8
 80026d8:	20000c48 	.word	0x20000c48

080026dc <pvTaskIncrementMutexHeldCount>:
		if( pxCurrentTCB != NULL )
 80026dc:	4b04      	ldr	r3, [pc, #16]	; (80026f0 <pvTaskIncrementMutexHeldCount+0x14>)
 80026de:	681a      	ldr	r2, [r3, #0]
 80026e0:	2a00      	cmp	r2, #0
 80026e2:	d003      	beq.n	80026ec <pvTaskIncrementMutexHeldCount+0x10>
			( pxCurrentTCB->uxMutexesHeld )++;
 80026e4:	6819      	ldr	r1, [r3, #0]
 80026e6:	6c8a      	ldr	r2, [r1, #72]	; 0x48
 80026e8:	3201      	adds	r2, #1
 80026ea:	648a      	str	r2, [r1, #72]	; 0x48
		return pxCurrentTCB;
 80026ec:	6818      	ldr	r0, [r3, #0]
	}
 80026ee:	4770      	bx	lr
 80026f0:	20000c3c 	.word	0x20000c3c

080026f4 <HAL_SYSTICK_Callback>:

#include <Common/Event.h>


void HAL_SYSTICK_Callback(void)
{
 80026f4:	b510      	push	{r4, lr}
  /* NOTE : This function should not be modified, when the callback is needed,
            the HAL_SYSTICK_Callback could be implemented in the user file
           	   Se debe incluir en stm32l0xx_it  HAL_SYSTICK_IRQHandler
   */

	qSchedulerSysTick();
 80026f6:	f000 fa9b 	bl	8002c30 <qSchedulerSysTick>
	Debounce_Update(&Fsm_DebounceData, HAL_GPIO_ReadPin(GPIOC,GPIO_PIN_13));
 80026fa:	2180      	movs	r1, #128	; 0x80
 80026fc:	480a      	ldr	r0, [pc, #40]	; (8002728 <HAL_SYSTICK_Callback+0x34>)
 80026fe:	0189      	lsls	r1, r1, #6
 8002700:	f7fd ff4c 	bl	800059c <HAL_GPIO_ReadPin>
 8002704:	0001      	movs	r1, r0
 8002706:	4809      	ldr	r0, [pc, #36]	; (800272c <HAL_SYSTICK_Callback+0x38>)
 8002708:	f000 f87b 	bl	8002802 <Debounce_Update>




	volatile static uint32_t contador=0;
	contador++;
 800270c:	4b08      	ldr	r3, [pc, #32]	; (8002730 <HAL_SYSTICK_Callback+0x3c>)
 800270e:	681a      	ldr	r2, [r3, #0]
 8002710:	3201      	adds	r2, #1
 8002712:	601a      	str	r2, [r3, #0]
	if(contador>10000){contador=0; FlagCont=1;}
 8002714:	6819      	ldr	r1, [r3, #0]
 8002716:	4a07      	ldr	r2, [pc, #28]	; (8002734 <HAL_SYSTICK_Callback+0x40>)
 8002718:	4291      	cmp	r1, r2
 800271a:	d904      	bls.n	8002726 <HAL_SYSTICK_Callback+0x32>
 800271c:	2200      	movs	r2, #0
 800271e:	601a      	str	r2, [r3, #0]
 8002720:	4b05      	ldr	r3, [pc, #20]	; (8002738 <HAL_SYSTICK_Callback+0x44>)
 8002722:	3201      	adds	r2, #1
 8002724:	701a      	strb	r2, [r3, #0]

}
 8002726:	bd10      	pop	{r4, pc}
 8002728:	48000800 	.word	0x48000800
 800272c:	20000d7c 	.word	0x20000d7c
 8002730:	20000d68 	.word	0x20000d68
 8002734:	00002710 	.word	0x00002710
 8002738:	20000d6c 	.word	0x20000d6c

0800273c <RSTCtrl_Sigfox>:
uint8_t ReportTimeMinute = 0;
uint8_t ReportTimeSecond = 0;
/******************Sigfox library*******************************/
SigfoxConfig_t SigfoxModule;

void RSTCtrl_Sigfox(uint8_t sValue){
 800273c:	b510      	push	{r4, lr}
 800273e:	1e02      	subs	r2, r0, #0
	if(sValue) HAL_GPIO_WritePin(GPIOA, RST_SIGFOX_Pin, GPIO_PIN_SET);
 8002740:	d000      	beq.n	8002744 <RSTCtrl_Sigfox+0x8>
 8002742:	2201      	movs	r2, #1
	else HAL_GPIO_WritePin(GPIOA, RST_SIGFOX_Pin, GPIO_PIN_RESET);
 8002744:	2090      	movs	r0, #144	; 0x90
 8002746:	2120      	movs	r1, #32
 8002748:	05c0      	lsls	r0, r0, #23
 800274a:	f7fd ff2d 	bl	80005a8 <HAL_GPIO_WritePin>
}
 800274e:	bd10      	pop	{r4, pc}

08002750 <RST2Ctrl_Sigfox>:
void RST2Ctrl_Sigfox(uint8_t sValue){
 8002750:	b510      	push	{r4, lr}
 8002752:	1e02      	subs	r2, r0, #0
	if(sValue) HAL_GPIO_WritePin(GPIOA, RST2_SIGFOX_Pin, GPIO_PIN_SET);
 8002754:	d000      	beq.n	8002758 <RST2Ctrl_Sigfox+0x8>
 8002756:	2201      	movs	r2, #1
	else HAL_GPIO_WritePin(GPIOA, RST2_SIGFOX_Pin, GPIO_PIN_RESET);
 8002758:	2090      	movs	r0, #144	; 0x90
 800275a:	2110      	movs	r1, #16
 800275c:	05c0      	lsls	r0, r0, #23
 800275e:	f7fd ff23 	bl	80005a8 <HAL_GPIO_WritePin>
}
 8002762:	bd10      	pop	{r4, pc}

08002764 <UART_SIGFOX_TX_STM>:
void UART_SIGFOX_TX_DEBUG_STM(void * Sp, char c){
	//HAL_UART_Transmit(&huart1,(uint8_t*)&c,USART_TX_AMOUNT_BYTES,USART_TIMEOUT);
}

/*****Funcin TX para envolver(Wrap) con Libreria sigfox********/
void UART_SIGFOX_TX_STM(void * Sp, char c){
 8002764:	b507      	push	{r0, r1, r2, lr}
 8002766:	466a      	mov	r2, sp
 8002768:	000b      	movs	r3, r1
 800276a:	1dd1      	adds	r1, r2, #7
 800276c:	700b      	strb	r3, [r1, #0]
	HAL_UART_Transmit(&huart1,(uint8_t*)&c,USART_TX_AMOUNT_BYTES,USART_TIMEOUT);
 800276e:	23fa      	movs	r3, #250	; 0xfa
 8002770:	2201      	movs	r2, #1
 8002772:	005b      	lsls	r3, r3, #1
 8002774:	4801      	ldr	r0, [pc, #4]	; (800277c <UART_SIGFOX_TX_STM+0x18>)
 8002776:	f7fe fe77 	bl	8001468 <HAL_UART_Transmit>
}
 800277a:	bd07      	pop	{r0, r1, r2, pc}
 800277c:	20000eb0 	.word	0x20000eb0

08002780 <UART_SIGFOX_RX_STM>:

/*****Funcin RX para envolver(Wrap) con Libreria sigfox********/
unsigned char UART_SIGFOX_RX_STM( unsigned char * Chr){
	*Chr = UART_RX.Data;
 8002780:	4b02      	ldr	r3, [pc, #8]	; (800278c <UART_SIGFOX_RX_STM+0xc>)
 8002782:	3302      	adds	r3, #2
 8002784:	7fdb      	ldrb	r3, [r3, #31]
 8002786:	7003      	strb	r3, [r0, #0]
	return WRAPER_ERR_OK;
}
 8002788:	2000      	movs	r0, #0
 800278a:	4770      	bx	lr
 800278c:	20000f90 	.word	0x20000f90

08002790 <PrintString>:

/*Tipo de datos*/
tipo_t xtypes;

/*Enviar por tx Debug*/
void PrintString(UART_HandleTypeDef *huart,uint8_t *pData){
 8002790:	b570      	push	{r4, r5, r6, lr}
 8002792:	0005      	movs	r5, r0

	HAL_UART_Transmit(huart,pData,strlen((const char *)(pData) ),500);
 8002794:	0008      	movs	r0, r1
void PrintString(UART_HandleTypeDef *huart,uint8_t *pData){
 8002796:	000c      	movs	r4, r1
	HAL_UART_Transmit(huart,pData,strlen((const char *)(pData) ),500);
 8002798:	f7fd fcb6 	bl	8000108 <strlen>
 800279c:	23fa      	movs	r3, #250	; 0xfa
 800279e:	b282      	uxth	r2, r0
 80027a0:	005b      	lsls	r3, r3, #1
 80027a2:	0028      	movs	r0, r5
 80027a4:	0021      	movs	r1, r4
 80027a6:	f7fe fe5f 	bl	8001468 <HAL_UART_Transmit>
}
 80027aa:	bd70      	pop	{r4, r5, r6, pc}

080027ac <DiscrimateFrameType>:

DL_Return DiscrimateFrameType(SigfoxConfig_t *obj){
	uint16_t tempReg;

	/* Discriminate the frame type */
    switch(obj->DL_NumericFrame[DL_CTRLREG] >> 4){ /* 4 most significant bits */
 80027ac:	0002      	movs	r2, r0
 80027ae:	32ec      	adds	r2, #236	; 0xec
 80027b0:	7812      	ldrb	r2, [r2, #0]
DL_Return DiscrimateFrameType(SigfoxConfig_t *obj){
 80027b2:	0003      	movs	r3, r0
    switch(obj->DL_NumericFrame[DL_CTRLREG] >> 4){ /* 4 most significant bits */
 80027b4:	0912      	lsrs	r2, r2, #4

        default:
        break;
    }/* End switch */

    return DL_SUCCESS;
 80027b6:	2000      	movs	r0, #0
    switch(obj->DL_NumericFrame[DL_CTRLREG] >> 4){ /* 4 most significant bits */
 80027b8:	2a05      	cmp	r2, #5
 80027ba:	d111      	bne.n	80027e0 <DiscrimateFrameType+0x34>
            tempReg = (obj->DL_NumericFrame[DL_TREP] << 8) | obj->DL_NumericFrame[DL_TREP + 1]; 	/* junto los 2 bytes en 1*/
 80027bc:	001a      	movs	r2, r3
 80027be:	32ee      	adds	r2, #238	; 0xee
 80027c0:	7811      	ldrb	r1, [r2, #0]
 80027c2:	3201      	adds	r2, #1
 80027c4:	7812      	ldrb	r2, [r2, #0]
 80027c6:	0209      	lsls	r1, r1, #8
 80027c8:	430a      	orrs	r2, r1
            if(tempReg >= DL_MIN_REPORT_TIME){
 80027ca:	219a      	movs	r1, #154	; 0x9a
    return DL_SUCCESS;
 80027cc:	2000      	movs	r0, #0
            if(tempReg >= DL_MIN_REPORT_TIME){
 80027ce:	0089      	lsls	r1, r1, #2
 80027d0:	428a      	cmp	r2, r1
 80027d2:	d905      	bls.n	80027e0 <DiscrimateFrameType+0x34>
              if(tempReg != obj->UL_ReportTimeS){ /*Si el dato es diferente*/
 80027d4:	33e8      	adds	r3, #232	; 0xe8
 80027d6:	6819      	ldr	r1, [r3, #0]
            	return DL_TIME_OK;
 80027d8:	3004      	adds	r0, #4
              if(tempReg != obj->UL_ReportTimeS){ /*Si el dato es diferente*/
 80027da:	428a      	cmp	r2, r1
 80027dc:	d000      	beq.n	80027e0 <DiscrimateFrameType+0x34>
            	  obj->UL_ReportTimeS = tempReg;
 80027de:	601a      	str	r2, [r3, #0]
}
 80027e0:	4770      	bx	lr

080027e2 <Debounce_Init>:
 *
 * Ej:  Debounce_Init(&DebounceData,40, PULLUP);
 *
 */
void Debounce_Init(DebounceData_t *PtrDataStruct,uint32_t DebounceTick, DebounceState_t PULL_x){
    PtrDataStruct->Delay=DebounceTick; /*DELAY_DEBOUNCE;*/
 80027e2:	b2c9      	uxtb	r1, r1
    PtrDataStruct->PreviousState_ = (PULL_x == PULL_UP) ? HIGH_:LOW_;
 80027e4:	1f53      	subs	r3, r2, #5
    PtrDataStruct->Delay=DebounceTick; /*DELAY_DEBOUNCE;*/
 80027e6:	7101      	strb	r1, [r0, #4]
    PtrDataStruct->PreviousState_ = (PULL_x == PULL_UP) ? HIGH_:LOW_;
 80027e8:	4259      	negs	r1, r3
 80027ea:	414b      	adcs	r3, r1
    PtrDataStruct->PreviousState_ = (PULL_x == PULL_DOWN) ? LOW_:HIGH_;
 80027ec:	3a06      	subs	r2, #6
    PtrDataStruct->PreviousState_ = (PULL_x == PULL_UP) ? HIGH_:LOW_;
 80027ee:	b2db      	uxtb	r3, r3
 80027f0:	7043      	strb	r3, [r0, #1]
    PtrDataStruct->PreviousState_ = (PULL_x == PULL_DOWN) ? LOW_:HIGH_;
 80027f2:	1e53      	subs	r3, r2, #1
 80027f4:	419a      	sbcs	r2, r3
    PtrDataStruct->FlagFalling = 0;
 80027f6:	2300      	movs	r3, #0
    PtrDataStruct->PreviousState_ = (PULL_x == PULL_DOWN) ? LOW_:HIGH_;
 80027f8:	b2d2      	uxtb	r2, r2
 80027fa:	7042      	strb	r2, [r0, #1]
    PtrDataStruct->FlagFalling = 0;
 80027fc:	7083      	strb	r3, [r0, #2]
    PtrDataStruct->FlagRising = 0;
 80027fe:	70c3      	strb	r3, [r0, #3]
}
 8002800:	4770      	bx	lr

08002802 <Debounce_Update>:
 * Ej: 	Debounce_Update(&DebounceData, HAL_GPIO_ReadPin(GPIOC,GPIO_PIN_13));
 *
 */

void Debounce_Update(DebounceData_t *PtrDataStruct,uint8_t PinState){
    if((PtrDataStruct->PreviousState_ && !PinState ) || (!PtrDataStruct->PreviousState_ && PinState) ){ /*FALLING*/
 8002802:	7843      	ldrb	r3, [r0, #1]
 8002804:	2b00      	cmp	r3, #0
 8002806:	d001      	beq.n	800280c <Debounce_Update+0xa>
 8002808:	2900      	cmp	r1, #0
 800280a:	d004      	beq.n	8002816 <Debounce_Update+0x14>
 800280c:	7843      	ldrb	r3, [r0, #1]
 800280e:	2b00      	cmp	r3, #0
 8002810:	d125      	bne.n	800285e <Debounce_Update+0x5c>
 8002812:	2900      	cmp	r1, #0
 8002814:	d023      	beq.n	800285e <Debounce_Update+0x5c>
        if(PtrDataStruct->TimeCounter++ >= PtrDataStruct->Delay){  /* 40 ms*/
 8002816:	7943      	ldrb	r3, [r0, #5]
 8002818:	b2db      	uxtb	r3, r3
 800281a:	1c5a      	adds	r2, r3, #1
 800281c:	b2d2      	uxtb	r2, r2
 800281e:	7142      	strb	r2, [r0, #5]
 8002820:	7902      	ldrb	r2, [r0, #4]
 8002822:	4293      	cmp	r3, r2
 8002824:	d318      	bcc.n	8002858 <Debounce_Update+0x56>
			if(PtrDataStruct->PreviousState_ && !PinState) {PtrDataStruct->Status = FALLING; PtrDataStruct->FlagFalling = 1; PtrDataStruct->FlagRising = 0;}
 8002826:	7843      	ldrb	r3, [r0, #1]
 8002828:	2b00      	cmp	r3, #0
 800282a:	d006      	beq.n	800283a <Debounce_Update+0x38>
 800282c:	2900      	cmp	r1, #0
 800282e:	d104      	bne.n	800283a <Debounce_Update+0x38>
 8002830:	2303      	movs	r3, #3
 8002832:	7183      	strb	r3, [r0, #6]
 8002834:	3b02      	subs	r3, #2
 8002836:	7083      	strb	r3, [r0, #2]
 8002838:	70c1      	strb	r1, [r0, #3]
        	if(!PtrDataStruct->PreviousState_ && PinState) {PtrDataStruct->Status = RISING; PtrDataStruct->FlagRising = 1; PtrDataStruct->FlagFalling = 0;}
 800283a:	7843      	ldrb	r3, [r0, #1]
 800283c:	b2db      	uxtb	r3, r3
 800283e:	2b00      	cmp	r3, #0
 8002840:	d106      	bne.n	8002850 <Debounce_Update+0x4e>
 8002842:	2900      	cmp	r1, #0
 8002844:	d004      	beq.n	8002850 <Debounce_Update+0x4e>
 8002846:	2202      	movs	r2, #2
 8002848:	7182      	strb	r2, [r0, #6]
 800284a:	3a01      	subs	r2, #1
 800284c:	70c2      	strb	r2, [r0, #3]
 800284e:	7083      	strb	r3, [r0, #2]
        	PtrDataStruct->PreviousState_ = PinState;
         	PtrDataStruct->TimeCounter=0;
 8002850:	2300      	movs	r3, #0
        	PtrDataStruct->PreviousState_ = PinState;
 8002852:	7041      	strb	r1, [r0, #1]
         	PtrDataStruct->TimeCounter=0;
 8002854:	7143      	strb	r3, [r0, #5]
		}else PtrDataStruct->Status =FLAG_UNKNOWN;

    }else   PtrDataStruct->Status = PinState;
}
 8002856:	4770      	bx	lr
		}else PtrDataStruct->Status =FLAG_UNKNOWN;
 8002858:	2304      	movs	r3, #4
 800285a:	7183      	strb	r3, [r0, #6]
 800285c:	e7fb      	b.n	8002856 <Debounce_Update+0x54>
    }else   PtrDataStruct->Status = PinState;
 800285e:	7181      	strb	r1, [r0, #6]
}
 8002860:	e7f9      	b.n	8002856 <Debounce_Update+0x54>

08002862 <SigfoxStringTX>:
	SigfoxResetObject(obj);
	SigfoxStringTX(obj,Str);
}

/*Private Functions ********************************************************************************************************************************/
void SigfoxStringTX(SigfoxConfig_t *obj, char* SigfoxString){
 8002862:	b570      	push	{r4, r5, r6, lr}
 8002864:	0005      	movs	r5, r0
 8002866:	000c      	movs	r4, r1
	while(*SigfoxString) {obj->TX_SIGFOX(NULL,*SigfoxString);SigfoxString++;}
 8002868:	7821      	ldrb	r1, [r4, #0]
 800286a:	2900      	cmp	r1, #0
 800286c:	d100      	bne.n	8002870 <SigfoxStringTX+0xe>
}
 800286e:	bd70      	pop	{r4, r5, r6, pc}
	while(*SigfoxString) {obj->TX_SIGFOX(NULL,*SigfoxString);SigfoxString++;}
 8002870:	2000      	movs	r0, #0
 8002872:	68ab      	ldr	r3, [r5, #8]
 8002874:	4798      	blx	r3
 8002876:	3401      	adds	r4, #1
 8002878:	e7f6      	b.n	8002868 <SigfoxStringTX+0x6>

0800287a <SigfoxResetObject>:

/*Private Functions ***********************************************************************************************************************************************/
void SigfoxResetObject(SigfoxConfig_t *obj){
 800287a:	b570      	push	{r4, r5, r6, lr}
	memset((void *)obj->RxFrame,0,sizeof(obj->RxFrame));
 800287c:	2564      	movs	r5, #100	; 0x64
void SigfoxResetObject(SigfoxConfig_t *obj){
 800287e:	0004      	movs	r4, r0
	memset((void *)obj->RxFrame,0,sizeof(obj->RxFrame));
 8002880:	002a      	movs	r2, r5
 8002882:	2100      	movs	r1, #0
 8002884:	3014      	adds	r0, #20
 8002886:	f000 fc42 	bl	800310e <memset>
	memset((void *)obj->TxFrame,0,sizeof(obj->TxFrame));
 800288a:	0020      	movs	r0, r4
 800288c:	002a      	movs	r2, r5
 800288e:	2100      	movs	r1, #0
 8002890:	3078      	adds	r0, #120	; 0x78
 8002892:	f000 fc3c 	bl	800310e <memset>
	obj->RxReady=SF_FALSE;
 8002896:	0022      	movs	r2, r4
 8002898:	2300      	movs	r3, #0
 800289a:	32dc      	adds	r2, #220	; 0xdc
 800289c:	7013      	strb	r3, [r2, #0]
	obj->RxIndex=0;
	obj->StatusFlag=SIGFOX_DEFAULT;
 800289e:	34de      	adds	r4, #222	; 0xde
	obj->RxIndex=0;
 80028a0:	7053      	strb	r3, [r2, #1]
	obj->StatusFlag=SIGFOX_DEFAULT;
 80028a2:	33ff      	adds	r3, #255	; 0xff
 80028a4:	7023      	strb	r3, [r4, #0]
}
 80028a6:	bd70      	pop	{r4, r5, r6, pc}

080028a8 <SigfoxInit>:
ULReturn SigfoxInit(SigfoxConfig_t *obj, DigitalFcn_t Reset, DigitalFcn_t Reset2, TxFnc_t Tx_SigFox, RxFnc_t Rx_SigFox,uint32_t Frequency_Tx, DL_Return (*DiscrimateFrameTypeFCN)(struct SigfoxConfig* ) ){
 80028a8:	b570      	push	{r4, r5, r6, lr}
	memset( (void *) obj->RxFrame,0,sizeof(obj->RxFrame));
 80028aa:	2564      	movs	r5, #100	; 0x64
ULReturn SigfoxInit(SigfoxConfig_t *obj, DigitalFcn_t Reset, DigitalFcn_t Reset2, TxFnc_t Tx_SigFox, RxFnc_t Rx_SigFox,uint32_t Frequency_Tx, DL_Return (*DiscrimateFrameTypeFCN)(struct SigfoxConfig* ) ){
 80028ac:	0004      	movs	r4, r0
	obj->TX_SIGFOX=Tx_SigFox;
 80028ae:	6083      	str	r3, [r0, #8]
	obj->RX_SIGFOX=Rx_SigFox;
 80028b0:	9b04      	ldr	r3, [sp, #16]
	obj->RST=Reset;
 80028b2:	6001      	str	r1, [r0, #0]
	obj->RX_SIGFOX=Rx_SigFox;
 80028b4:	60c3      	str	r3, [r0, #12]
	obj->DiscrimateFrameTypeFcn = DiscrimateFrameTypeFCN;
 80028b6:	9b06      	ldr	r3, [sp, #24]
	obj->RST2=Reset2;
 80028b8:	6042      	str	r2, [r0, #4]
	obj->DiscrimateFrameTypeFcn = DiscrimateFrameTypeFCN;
 80028ba:	6103      	str	r3, [r0, #16]
	memset( (void *) obj->RxFrame,0,sizeof(obj->RxFrame));
 80028bc:	002a      	movs	r2, r5
 80028be:	2100      	movs	r1, #0
 80028c0:	3014      	adds	r0, #20
 80028c2:	f000 fc24 	bl	800310e <memset>
	memset( (void *) obj->TxFrame,0,sizeof(obj->TxFrame));
 80028c6:	0020      	movs	r0, r4
 80028c8:	002a      	movs	r2, r5
 80028ca:	2100      	movs	r1, #0
 80028cc:	3078      	adds	r0, #120	; 0x78
 80028ce:	f000 fc1e 	bl	800310e <memset>
	obj->RxReady=SF_FALSE;
 80028d2:	0023      	movs	r3, r4
 80028d4:	2000      	movs	r0, #0
 80028d6:	33dc      	adds	r3, #220	; 0xdc
 80028d8:	7018      	strb	r0, [r3, #0]
	obj->RxIndex=0;
 80028da:	7058      	strb	r0, [r3, #1]
	obj->Frequency=Frequency_Tx;
 80028dc:	9b05      	ldr	r3, [sp, #20]
 80028de:	34e0      	adds	r4, #224	; 0xe0
 80028e0:	6023      	str	r3, [r4, #0]
}
 80028e2:	bd70      	pop	{r4, r5, r6, pc}

080028e4 <SigfoxWakeUP>:
void SigfoxWakeUP(SigfoxConfig_t *obj){
 80028e4:	b510      	push	{r4, lr}
 80028e6:	0004      	movs	r4, r0
	obj->RST(SF_FALSE);
 80028e8:	2000      	movs	r0, #0
 80028ea:	6823      	ldr	r3, [r4, #0]
 80028ec:	4798      	blx	r3
	obj->RST(SF_TRUE);
 80028ee:	6823      	ldr	r3, [r4, #0]
 80028f0:	2001      	movs	r0, #1
 80028f2:	4798      	blx	r3
	obj->RST2(SF_TRUE);
 80028f4:	6863      	ldr	r3, [r4, #4]
 80028f6:	2001      	movs	r0, #1
 80028f8:	4798      	blx	r3
}
 80028fa:	bd10      	pop	{r4, pc}

080028fc <SigfoxISRRX>:
void SigfoxISRRX(SigfoxConfig_t *obj){
 80028fc:	b573      	push	{r0, r1, r4, r5, r6, lr}
	obj->RX_SIGFOX(&rxChar_Sigfox);
 80028fe:	466b      	mov	r3, sp
void SigfoxISRRX(SigfoxConfig_t *obj){
 8002900:	0004      	movs	r4, r0
	obj->RX_SIGFOX(&rxChar_Sigfox);
 8002902:	1ddd      	adds	r5, r3, #7
 8002904:	0028      	movs	r0, r5
 8002906:	68e3      	ldr	r3, [r4, #12]
 8002908:	4798      	blx	r3
	if(obj->RxReady) return; // B_uffer reveived
 800290a:	0020      	movs	r0, r4
 800290c:	30dc      	adds	r0, #220	; 0xdc
 800290e:	7801      	ldrb	r1, [r0, #0]
 8002910:	b2c9      	uxtb	r1, r1
 8002912:	2900      	cmp	r1, #0
 8002914:	d11a      	bne.n	800294c <SigfoxISRRX+0x50>
	obj->RxFrame[obj->RxIndex++] = rxChar_Sigfox;
 8002916:	0023      	movs	r3, r4
 8002918:	33dd      	adds	r3, #221	; 0xdd
 800291a:	781a      	ldrb	r2, [r3, #0]
 800291c:	782d      	ldrb	r5, [r5, #0]
 800291e:	b2d2      	uxtb	r2, r2
 8002920:	1c56      	adds	r6, r2, #1
 8002922:	b2f6      	uxtb	r6, r6
 8002924:	18a2      	adds	r2, r4, r2
 8002926:	701e      	strb	r6, [r3, #0]
 8002928:	7515      	strb	r5, [r2, #20]
	if (obj->RxIndex>=sizeof(obj->RxFrame)-1) obj->RxIndex=0;
 800292a:	781a      	ldrb	r2, [r3, #0]
 800292c:	2a62      	cmp	r2, #98	; 0x62
 800292e:	d900      	bls.n	8002932 <SigfoxISRRX+0x36>
 8002930:	7019      	strb	r1, [r3, #0]
	obj->RxFrame[obj->RxIndex] = 0;
 8002932:	2100      	movs	r1, #0
 8002934:	781a      	ldrb	r2, [r3, #0]
 8002936:	18a2      	adds	r2, r4, r2
 8002938:	7511      	strb	r1, [r2, #20]
	if (rxChar_Sigfox=='\r'){
 800293a:	2d0d      	cmp	r5, #13
 800293c:	d106      	bne.n	800294c <SigfoxISRRX+0x50>
		if(!obj->DownLink){
 800293e:	34e4      	adds	r4, #228	; 0xe4
 8002940:	7822      	ldrb	r2, [r4, #0]
 8002942:	428a      	cmp	r2, r1
 8002944:	d103      	bne.n	800294e <SigfoxISRRX+0x52>
		    obj->RxIndex = 0;
 8002946:	701a      	strb	r2, [r3, #0]
		    obj->RxReady = SF_TRUE; // Framed completed
 8002948:	2301      	movs	r3, #1
 800294a:	7003      	strb	r3, [r0, #0]
}
 800294c:	bd73      	pop	{r0, r1, r4, r5, r6, pc}
			obj->DownLink = 0; /* Clear the downlink request */
 800294e:	7021      	strb	r1, [r4, #0]
 8002950:	e7fc      	b.n	800294c <SigfoxISRRX+0x50>

08002952 <SigfoxCommandSend>:
void SigfoxCommandSend(SigfoxConfig_t *obj, char * Str){
 8002952:	b570      	push	{r4, r5, r6, lr}
 8002954:	000d      	movs	r5, r1
 8002956:	0004      	movs	r4, r0
	SigfoxResetObject(obj);
 8002958:	f7ff ff8f 	bl	800287a <SigfoxResetObject>
	SigfoxStringTX(obj,Str);
 800295c:	0029      	movs	r1, r5
 800295e:	0020      	movs	r0, r4
 8002960:	f7ff ff7f 	bl	8002862 <SigfoxStringTX>
}
 8002964:	bd70      	pop	{r4, r5, r6, pc}
	...

08002968 <MX_GPIO_Init>:
/**
  * @brief GPIO Initialization Function
  * @param None
  * @retval None
  */
void MX_GPIO_Init(void){
 8002968:	b5f0      	push	{r4, r5, r6, r7, lr}
 800296a:	b089      	sub	sp, #36	; 0x24

	  GPIO_InitTypeDef GPIO_InitStruct = {0};
 800296c:	2214      	movs	r2, #20
 800296e:	2100      	movs	r1, #0
 8002970:	a803      	add	r0, sp, #12
 8002972:	f000 fbcc 	bl	800310e <memset>

	  /* GPIO Ports Clock Enable */
	  __HAL_RCC_GPIOF_CLK_ENABLE();
 8002976:	2080      	movs	r0, #128	; 0x80
 8002978:	4b26      	ldr	r3, [pc, #152]	; (8002a14 <MX_GPIO_Init+0xac>)
 800297a:	03c0      	lsls	r0, r0, #15
 800297c:	6959      	ldr	r1, [r3, #20]
	  __HAL_RCC_GPIOA_CLK_ENABLE();
	  __HAL_RCC_GPIOB_CLK_ENABLE();

	  /*Configure GPIO pin Output Level */
	  HAL_GPIO_WritePin(GPIOA, RST2_SIGFOX_Pin|RST_SIGFOX_Pin, GPIO_PIN_SET);
 800297e:	2590      	movs	r5, #144	; 0x90
	  __HAL_RCC_GPIOF_CLK_ENABLE();
 8002980:	4301      	orrs	r1, r0
 8002982:	6159      	str	r1, [r3, #20]
 8002984:	695a      	ldr	r2, [r3, #20]
	  HAL_GPIO_WritePin(GPIOA, RST2_SIGFOX_Pin|RST_SIGFOX_Pin, GPIO_PIN_SET);
 8002986:	05ed      	lsls	r5, r5, #23
	  __HAL_RCC_GPIOF_CLK_ENABLE();
 8002988:	4002      	ands	r2, r0
	  __HAL_RCC_GPIOA_CLK_ENABLE();
 800298a:	2080      	movs	r0, #128	; 0x80
	  __HAL_RCC_GPIOF_CLK_ENABLE();
 800298c:	9200      	str	r2, [sp, #0]
 800298e:	9a00      	ldr	r2, [sp, #0]
	  __HAL_RCC_GPIOA_CLK_ENABLE();
 8002990:	6959      	ldr	r1, [r3, #20]
 8002992:	0280      	lsls	r0, r0, #10
 8002994:	4301      	orrs	r1, r0
 8002996:	6159      	str	r1, [r3, #20]
	  __HAL_RCC_GPIOB_CLK_ENABLE();
 8002998:	2180      	movs	r1, #128	; 0x80
	  __HAL_RCC_GPIOA_CLK_ENABLE();
 800299a:	695a      	ldr	r2, [r3, #20]
	  __HAL_RCC_GPIOB_CLK_ENABLE();
 800299c:	02c9      	lsls	r1, r1, #11
	  __HAL_RCC_GPIOA_CLK_ENABLE();
 800299e:	4002      	ands	r2, r0
 80029a0:	9201      	str	r2, [sp, #4]
 80029a2:	9a01      	ldr	r2, [sp, #4]
	  __HAL_RCC_GPIOB_CLK_ENABLE();
 80029a4:	695a      	ldr	r2, [r3, #20]

	  /*Configure GPIO pin Output Level */
	  HAL_GPIO_WritePin(LED_GPIO_Port, LED_Pin, GPIO_PIN_RESET);
 80029a6:	4e1c      	ldr	r6, [pc, #112]	; (8002a18 <MX_GPIO_Init+0xb0>)
	  __HAL_RCC_GPIOB_CLK_ENABLE();
 80029a8:	430a      	orrs	r2, r1
 80029aa:	615a      	str	r2, [r3, #20]
 80029ac:	695b      	ldr	r3, [r3, #20]
	  HAL_GPIO_WritePin(GPIOA, RST2_SIGFOX_Pin|RST_SIGFOX_Pin, GPIO_PIN_SET);
 80029ae:	0028      	movs	r0, r5
	  __HAL_RCC_GPIOB_CLK_ENABLE();
 80029b0:	400b      	ands	r3, r1
 80029b2:	9302      	str	r3, [sp, #8]
	  HAL_GPIO_WritePin(GPIOA, RST2_SIGFOX_Pin|RST_SIGFOX_Pin, GPIO_PIN_SET);
 80029b4:	2201      	movs	r2, #1
 80029b6:	2130      	movs	r1, #48	; 0x30
	  __HAL_RCC_GPIOB_CLK_ENABLE();
 80029b8:	9b02      	ldr	r3, [sp, #8]
	  HAL_GPIO_WritePin(GPIOA, RST2_SIGFOX_Pin|RST_SIGFOX_Pin, GPIO_PIN_SET);
 80029ba:	f7fd fdf5 	bl	80005a8 <HAL_GPIO_WritePin>
	  HAL_GPIO_WritePin(LED_GPIO_Port, LED_Pin, GPIO_PIN_RESET);
 80029be:	2200      	movs	r2, #0
 80029c0:	0030      	movs	r0, r6
 80029c2:	2102      	movs	r1, #2
 80029c4:	f7fd fdf0 	bl	80005a8 <HAL_GPIO_WritePin>
//	  HAL_GPIO_Init(GPIOA, &GPIO_InitStruct);

	  /*Configure GPIO pins : RST2_SIGFOX_Pin RST_SIGFOX_Pin */
	  GPIO_InitStruct.Pin = RST2_SIGFOX_Pin|RST_SIGFOX_Pin;
	  GPIO_InitStruct.Mode = GPIO_MODE_OUTPUT_PP;
	  GPIO_InitStruct.Pull = GPIO_NOPULL;
 80029c8:	2400      	movs	r4, #0
	  GPIO_InitStruct.Pin = RST2_SIGFOX_Pin|RST_SIGFOX_Pin;
 80029ca:	2330      	movs	r3, #48	; 0x30
	  GPIO_InitStruct.Mode = GPIO_MODE_OUTPUT_PP;
 80029cc:	2701      	movs	r7, #1
	  GPIO_InitStruct.Speed = GPIO_SPEED_FREQ_LOW;
	  HAL_GPIO_Init(GPIOA, &GPIO_InitStruct);
 80029ce:	a903      	add	r1, sp, #12
 80029d0:	0028      	movs	r0, r5
	  GPIO_InitStruct.Pin = RST2_SIGFOX_Pin|RST_SIGFOX_Pin;
 80029d2:	9303      	str	r3, [sp, #12]
	  GPIO_InitStruct.Mode = GPIO_MODE_OUTPUT_PP;
 80029d4:	9704      	str	r7, [sp, #16]
	  GPIO_InitStruct.Pull = GPIO_NOPULL;
 80029d6:	9405      	str	r4, [sp, #20]
	  GPIO_InitStruct.Speed = GPIO_SPEED_FREQ_LOW;
 80029d8:	9406      	str	r4, [sp, #24]
	  HAL_GPIO_Init(GPIOA, &GPIO_InitStruct);
 80029da:	f7fd fd2f 	bl	800043c <HAL_GPIO_Init>

	  /*Configure GPIOB pin : LED_Pin  PB1*/
	  GPIO_InitStruct.Pin = LED_Pin;
 80029de:	2302      	movs	r3, #2
	  GPIO_InitStruct.Mode = GPIO_MODE_OUTPUT_PP;
	  GPIO_InitStruct.Pull = GPIO_NOPULL;
	  GPIO_InitStruct.Speed = GPIO_SPEED_FREQ_LOW;
	  HAL_GPIO_Init(LED_GPIO_Port, &GPIO_InitStruct);
 80029e0:	0030      	movs	r0, r6
	  /* GPIO Ports Clock Enable */


	  /*input Analog bajo consumo*/
	  /*Configure GPIO pins : PF0 PF1 */
	  GPIO_InitStruct.Pin = GPIO_PIN_0|GPIO_PIN_1;
 80029e2:	2603      	movs	r6, #3
	  HAL_GPIO_Init(LED_GPIO_Port, &GPIO_InitStruct);
 80029e4:	a903      	add	r1, sp, #12
	  GPIO_InitStruct.Pin = LED_Pin;
 80029e6:	9303      	str	r3, [sp, #12]
	  GPIO_InitStruct.Mode = GPIO_MODE_OUTPUT_PP;
 80029e8:	9704      	str	r7, [sp, #16]
	  GPIO_InitStruct.Pull = GPIO_NOPULL;
 80029ea:	9405      	str	r4, [sp, #20]
	  GPIO_InitStruct.Speed = GPIO_SPEED_FREQ_LOW;
 80029ec:	9406      	str	r4, [sp, #24]
	  HAL_GPIO_Init(LED_GPIO_Port, &GPIO_InitStruct);
 80029ee:	f7fd fd25 	bl	800043c <HAL_GPIO_Init>
	  GPIO_InitStruct.Mode = GPIO_MODE_ANALOG;
	  GPIO_InitStruct.Pull = GPIO_NOPULL;
	  HAL_GPIO_Init(GPIOF, &GPIO_InitStruct);
 80029f2:	a903      	add	r1, sp, #12
 80029f4:	4809      	ldr	r0, [pc, #36]	; (8002a1c <MX_GPIO_Init+0xb4>)
	  GPIO_InitStruct.Pin = GPIO_PIN_0|GPIO_PIN_1;
 80029f6:	9603      	str	r6, [sp, #12]
	  GPIO_InitStruct.Mode = GPIO_MODE_ANALOG;
 80029f8:	9604      	str	r6, [sp, #16]
	  GPIO_InitStruct.Pull = GPIO_NOPULL;
 80029fa:	9405      	str	r4, [sp, #20]
	  HAL_GPIO_Init(GPIOF, &GPIO_InitStruct);
 80029fc:	f7fd fd1e 	bl	800043c <HAL_GPIO_Init>

	  /*Configure GPIO pins : PA1 PA6
	                           PA7 PA13
	                           PA14 */
	  GPIO_InitStruct.Pin = GPIO_PIN_1|GPIO_PIN_6
 8002a00:	4b07      	ldr	r3, [pc, #28]	; (8002a20 <MX_GPIO_Init+0xb8>)
	                          |GPIO_PIN_7|GPIO_PIN_13
	                          |GPIO_PIN_14;
	  GPIO_InitStruct.Mode = GPIO_MODE_ANALOG;
	  GPIO_InitStruct.Pull = GPIO_NOPULL;
	  HAL_GPIO_Init(GPIOA, &GPIO_InitStruct);
 8002a02:	a903      	add	r1, sp, #12
 8002a04:	0028      	movs	r0, r5
	  GPIO_InitStruct.Pin = GPIO_PIN_1|GPIO_PIN_6
 8002a06:	9303      	str	r3, [sp, #12]
	  GPIO_InitStruct.Mode = GPIO_MODE_ANALOG;
 8002a08:	9604      	str	r6, [sp, #16]
	  GPIO_InitStruct.Pull = GPIO_NOPULL;
 8002a0a:	9405      	str	r4, [sp, #20]
	  HAL_GPIO_Init(GPIOA, &GPIO_InitStruct);
 8002a0c:	f7fd fd16 	bl	800043c <HAL_GPIO_Init>

	  /* EXTI interrupt init*/
	  //HAL_NVIC_SetPriority(EXTI0_1_IRQn, 0, 0);
	 // HAL_NVIC_EnableIRQ(EXTI0_1_IRQn);

}
 8002a10:	b009      	add	sp, #36	; 0x24
 8002a12:	bdf0      	pop	{r4, r5, r6, r7, pc}
 8002a14:	40021000 	.word	0x40021000
 8002a18:	48000400 	.word	0x48000400
 8002a1c:	48001400 	.word	0x48001400
 8002a20:	000060c2 	.word	0x000060c2

08002a24 <HAL_RTC_AlarmAEventCallback>:

}

void HAL_RTC_AlarmAEventCallback(RTC_HandleTypeDef *hrtc){

	Flags_globals.flag_ON_WAKEUP_TIME = 1;
 8002a24:	2320      	movs	r3, #32
 8002a26:	4a02      	ldr	r2, [pc, #8]	; (8002a30 <HAL_RTC_AlarmAEventCallback+0xc>)
 8002a28:	8811      	ldrh	r1, [r2, #0]
 8002a2a:	430b      	orrs	r3, r1
 8002a2c:	8013      	strh	r3, [r2, #0]
}
 8002a2e:	4770      	bx	lr
 8002a30:	20000d84 	.word	0x20000d84

08002a34 <setTime>:

/**
 * hex Bcd Hours (0-0x23  o 0-0x12) ,Minutes(0-0x59) ,  Seconds(0-0x59)
 *
 * */
void setTime(uint8_t Hours, uint8_t Minutes, uint8_t Seconds){
 8002a34:	b5f0      	push	{r4, r5, r6, r7, lr}
 8002a36:	0005      	movs	r5, r0
 8002a38:	b08d      	sub	sp, #52	; 0x34
 8002a3a:	000f      	movs	r7, r1
 8002a3c:	0016      	movs	r6, r2
	  RTC_AlarmTypeDef sAlarm = {0};
 8002a3e:	2100      	movs	r1, #0
 8002a40:	2228      	movs	r2, #40	; 0x28
 8002a42:	a802      	add	r0, sp, #8
 8002a44:	f000 fb63 	bl	800310e <memset>

	  /**Enable the Alarm A
	 	  */
	  /*Decimal to BCD*/
	  Hours = ((Hours/10)*16 +(Hours%10) );  /*((year / 10) << 4) | (year % 10)*/
 8002a48:	210a      	movs	r1, #10
 8002a4a:	0028      	movs	r0, r5
 8002a4c:	f7fd fb78 	bl	8000140 <__udivsi3>
 8002a50:	0100      	lsls	r0, r0, #4
 8002a52:	b2c4      	uxtb	r4, r0
 8002a54:	210a      	movs	r1, #10
 8002a56:	0028      	movs	r0, r5
 8002a58:	f7fd fbf8 	bl	800024c <__aeabi_uidivmod>
	  Minutes = ((Minutes/10)*16 +(Minutes%10) );
 8002a5c:	0038      	movs	r0, r7
	  Hours = ((Hours/10)*16 +(Hours%10) );  /*((year / 10) << 4) | (year % 10)*/
 8002a5e:	b2cd      	uxtb	r5, r1
	  Minutes = ((Minutes/10)*16 +(Minutes%10) );
 8002a60:	210a      	movs	r1, #10
 8002a62:	f7fd fb6d 	bl	8000140 <__udivsi3>
 8002a66:	0100      	lsls	r0, r0, #4
 8002a68:	b2c3      	uxtb	r3, r0
 8002a6a:	210a      	movs	r1, #10
 8002a6c:	0038      	movs	r0, r7
 8002a6e:	9300      	str	r3, [sp, #0]
 8002a70:	f7fd fbec 	bl	800024c <__aeabi_uidivmod>
	  Seconds = ((Seconds/10)*16 +(Seconds%10) );
 8002a74:	0030      	movs	r0, r6
	  Minutes = ((Minutes/10)*16 +(Minutes%10) );
 8002a76:	b2cf      	uxtb	r7, r1
	  Seconds = ((Seconds/10)*16 +(Seconds%10) );
 8002a78:	210a      	movs	r1, #10
 8002a7a:	f7fd fb61 	bl	8000140 <__udivsi3>
 8002a7e:	0100      	lsls	r0, r0, #4
 8002a80:	b2c3      	uxtb	r3, r0
 8002a82:	210a      	movs	r1, #10
 8002a84:	0030      	movs	r0, r6
 8002a86:	9301      	str	r3, [sp, #4]
 8002a88:	f7fd fbe0 	bl	800024c <__aeabi_uidivmod>
	  Hours = ((Hours/10)*16 +(Hours%10) );  /*((year / 10) << 4) | (year % 10)*/
 8002a8c:	1964      	adds	r4, r4, r5

	  sAlarm.AlarmTime.Hours = Hours > RTC_MAX_HOURS ? RTC_MAX_HOURS : Hours;  /**/
 8002a8e:	1c23      	adds	r3, r4, #0
 8002a90:	b2e4      	uxtb	r4, r4
	  Seconds = ((Seconds/10)*16 +(Seconds%10) );
 8002a92:	b2c9      	uxtb	r1, r1
	  sAlarm.AlarmTime.Hours = Hours > RTC_MAX_HOURS ? RTC_MAX_HOURS : Hours;  /**/
 8002a94:	2c23      	cmp	r4, #35	; 0x23
 8002a96:	d900      	bls.n	8002a9a <setTime+0x66>
 8002a98:	2323      	movs	r3, #35	; 0x23
 8002a9a:	aa02      	add	r2, sp, #8
 8002a9c:	7013      	strb	r3, [r2, #0]
	  Minutes = ((Minutes/10)*16 +(Minutes%10) );
 8002a9e:	9b00      	ldr	r3, [sp, #0]
 8002aa0:	19df      	adds	r7, r3, r7
	  sAlarm.AlarmTime.Minutes = Minutes > RTC_MAX_MIN ? RTC_MAX_MIN : Minutes; /*0x59 = 59 min esta en hex bcd, 0x10 = 10 min = 8*/
 8002aa2:	1c3b      	adds	r3, r7, #0
 8002aa4:	b2ff      	uxtb	r7, r7
 8002aa6:	2f59      	cmp	r7, #89	; 0x59
 8002aa8:	d900      	bls.n	8002aac <setTime+0x78>
 8002aaa:	2359      	movs	r3, #89	; 0x59
 8002aac:	aa02      	add	r2, sp, #8
 8002aae:	7053      	strb	r3, [r2, #1]
	  Seconds = ((Seconds/10)*16 +(Seconds%10) );
 8002ab0:	9b01      	ldr	r3, [sp, #4]
 8002ab2:	1859      	adds	r1, r3, r1
	  sAlarm.AlarmTime.Seconds = Seconds > RTC_MAX_SEG ? RTC_MAX_MIN : Seconds;
 8002ab4:	1c0b      	adds	r3, r1, #0
 8002ab6:	b2c9      	uxtb	r1, r1
 8002ab8:	2959      	cmp	r1, #89	; 0x59
 8002aba:	d900      	bls.n	8002abe <setTime+0x8a>
 8002abc:	2359      	movs	r3, #89	; 0x59
 8002abe:	aa02      	add	r2, sp, #8
 8002ac0:	7093      	strb	r3, [r2, #2]

	  sAlarm.AlarmTime.SubSeconds = 0x0;
	  sAlarm.AlarmTime.DayLightSaving = RTC_DAYLIGHTSAVING_NONE;
	  sAlarm.AlarmTime.StoreOperation = RTC_STOREOPERATION_RESET;
	  /*No importa la fecha mask 3, solo importa mask 0,1,2 h:m:s ver dm0025071*/
	  sAlarm.AlarmMask = RTC_ALARMMASK_DATEWEEKDAY;  /*RTC_ALARMMASK_NONE; Importa fecha y hora para alarma*/
 8002ac2:	2380      	movs	r3, #128	; 0x80
	  sAlarm.AlarmSubSecondMask = RTC_ALARMSUBSECONDMASK_ALL;
	  sAlarm.AlarmDateWeekDaySel = RTC_ALARMDATEWEEKDAYSEL_DATE;
	  sAlarm.AlarmDateWeekDay = 0x1;
 8002ac4:	2201      	movs	r2, #1
	  sAlarm.AlarmMask = RTC_ALARMMASK_DATEWEEKDAY;  /*RTC_ALARMMASK_NONE; Importa fecha y hora para alarma*/
 8002ac6:	061b      	lsls	r3, r3, #24
 8002ac8:	9307      	str	r3, [sp, #28]
	  sAlarm.AlarmDateWeekDay = 0x1;
 8002aca:	ab02      	add	r3, sp, #8
 8002acc:	189b      	adds	r3, r3, r2
 8002ace:	77da      	strb	r2, [r3, #31]
	  sAlarm.Alarm = RTC_ALARM_A;
 8002ad0:	2380      	movs	r3, #128	; 0x80
	  if (HAL_RTC_SetAlarm_IT(&hrtc, &sAlarm, RTC_FORMAT_BCD) != HAL_OK)
 8002ad2:	a902      	add	r1, sp, #8
	  sAlarm.Alarm = RTC_ALARM_A;
 8002ad4:	005b      	lsls	r3, r3, #1
	  if (HAL_RTC_SetAlarm_IT(&hrtc, &sAlarm, RTC_FORMAT_BCD) != HAL_OK)
 8002ad6:	4805      	ldr	r0, [pc, #20]	; (8002aec <setTime+0xb8>)
	  sAlarm.Alarm = RTC_ALARM_A;
 8002ad8:	930b      	str	r3, [sp, #44]	; 0x2c
	  if (HAL_RTC_SetAlarm_IT(&hrtc, &sAlarm, RTC_FORMAT_BCD) != HAL_OK)
 8002ada:	f7fe fa4d 	bl	8000f78 <HAL_RTC_SetAlarm_IT>
 8002ade:	2800      	cmp	r0, #0
 8002ae0:	d001      	beq.n	8002ae6 <setTime+0xb2>
	  {
		Error_Handler();
 8002ae2:	f000 f9ad 	bl	8002e40 <Error_Handler>
	  }
}
 8002ae6:	b00d      	add	sp, #52	; 0x34
 8002ae8:	bdf0      	pop	{r4, r5, r6, r7, pc}
 8002aea:	46c0      	nop			; (mov r8, r8)
 8002aec:	20000e90 	.word	0x20000e90

08002af0 <MX_RTC_Init>:
{
 8002af0:	b570      	push	{r4, r5, r6, lr}
 8002af2:	b086      	sub	sp, #24
	  RTC_TimeTypeDef sTime = {0};
 8002af4:	ae01      	add	r6, sp, #4
 8002af6:	2214      	movs	r2, #20
 8002af8:	2100      	movs	r1, #0
 8002afa:	0030      	movs	r0, r6
 8002afc:	f000 fb07 	bl	800310e <memset>
	  hrtc.Instance = RTC;
 8002b00:	4d1f      	ldr	r5, [pc, #124]	; (8002b80 <MX_RTC_Init+0x90>)
 8002b02:	4b20      	ldr	r3, [pc, #128]	; (8002b84 <MX_RTC_Init+0x94>)
	  RTC_DateTypeDef sDate = {0};
 8002b04:	2400      	movs	r4, #0
	  hrtc.Instance = RTC;
 8002b06:	602b      	str	r3, [r5, #0]
	  hrtc.Init.AsynchPrediv = 79;
 8002b08:	234f      	movs	r3, #79	; 0x4f
 8002b0a:	60ab      	str	r3, [r5, #8]
	  hrtc.Init.SynchPrediv = 499;
 8002b0c:	23f4      	movs	r3, #244	; 0xf4
	  if (HAL_RTC_Init(&hrtc) != HAL_OK)
 8002b0e:	0028      	movs	r0, r5
	  hrtc.Init.SynchPrediv = 499;
 8002b10:	33ff      	adds	r3, #255	; 0xff
	  RTC_DateTypeDef sDate = {0};
 8002b12:	9400      	str	r4, [sp, #0]
	  hrtc.Init.HourFormat = RTC_HOURFORMAT_24;
 8002b14:	606c      	str	r4, [r5, #4]
	  hrtc.Init.SynchPrediv = 499;
 8002b16:	60eb      	str	r3, [r5, #12]
	  hrtc.Init.OutPut = RTC_OUTPUT_DISABLE;
 8002b18:	612c      	str	r4, [r5, #16]
	  hrtc.Init.OutPutPolarity = RTC_OUTPUT_POLARITY_HIGH;
 8002b1a:	616c      	str	r4, [r5, #20]
	  hrtc.Init.OutPutType = RTC_OUTPUT_TYPE_OPENDRAIN;
 8002b1c:	61ac      	str	r4, [r5, #24]
	  if (HAL_RTC_Init(&hrtc) != HAL_OK)
 8002b1e:	f7fe f8f3 	bl	8000d08 <HAL_RTC_Init>
 8002b22:	42a0      	cmp	r0, r4
 8002b24:	d001      	beq.n	8002b2a <MX_RTC_Init+0x3a>
	    Error_Handler();
 8002b26:	f000 f98b 	bl	8002e40 <Error_Handler>
	  if (HAL_RTC_SetTime(&hrtc, &sTime, RTC_FORMAT_BCD) != HAL_OK)
 8002b2a:	2201      	movs	r2, #1
 8002b2c:	0031      	movs	r1, r6
 8002b2e:	0028      	movs	r0, r5
	  sTime.Hours = 0x0;
 8002b30:	7034      	strb	r4, [r6, #0]
	  sTime.Minutes = 0x0;
 8002b32:	7074      	strb	r4, [r6, #1]
	  sTime.Seconds = 0x0;
 8002b34:	70b4      	strb	r4, [r6, #2]
	  sTime.DayLightSaving = RTC_DAYLIGHTSAVING_NONE;
 8002b36:	60f4      	str	r4, [r6, #12]
	  sTime.StoreOperation = RTC_STOREOPERATION_RESET;
 8002b38:	6134      	str	r4, [r6, #16]
	  if (HAL_RTC_SetTime(&hrtc, &sTime, RTC_FORMAT_BCD) != HAL_OK)
 8002b3a:	f7fe f945 	bl	8000dc8 <HAL_RTC_SetTime>
 8002b3e:	2800      	cmp	r0, #0
 8002b40:	d001      	beq.n	8002b46 <MX_RTC_Init+0x56>
	    Error_Handler();
 8002b42:	f000 f97d 	bl	8002e40 <Error_Handler>
	  sDate.WeekDay = RTC_WEEKDAY_MONDAY;
 8002b46:	2401      	movs	r4, #1
 8002b48:	466b      	mov	r3, sp
	  sDate.Month = RTC_MONTH_FEBRUARY;
 8002b4a:	466a      	mov	r2, sp
	  sDate.WeekDay = RTC_WEEKDAY_MONDAY;
 8002b4c:	701c      	strb	r4, [r3, #0]
	  sDate.Month = RTC_MONTH_FEBRUARY;
 8002b4e:	2302      	movs	r3, #2
 8002b50:	7053      	strb	r3, [r2, #1]
	  sDate.Year = 0x0;
 8002b52:	2300      	movs	r3, #0
	  sDate.Date = 0x01;
 8002b54:	7094      	strb	r4, [r2, #2]
	  sDate.Year = 0x0;
 8002b56:	70d3      	strb	r3, [r2, #3]
	  if (HAL_RTC_SetDate(&hrtc, &sDate, RTC_FORMAT_BCD) != HAL_OK)
 8002b58:	4669      	mov	r1, sp
 8002b5a:	0022      	movs	r2, r4
 8002b5c:	0028      	movs	r0, r5
 8002b5e:	f7fe f9a7 	bl	8000eb0 <HAL_RTC_SetDate>
 8002b62:	2800      	cmp	r0, #0
 8002b64:	d001      	beq.n	8002b6a <MX_RTC_Init+0x7a>
	    Error_Handler();
 8002b66:	f000 f96b 	bl	8002e40 <Error_Handler>
	   ReportTimeHour = 1;
 8002b6a:	4b07      	ldr	r3, [pc, #28]	; (8002b88 <MX_RTC_Init+0x98>)
	   setTime(ReportTimeHour,ReportTimeMinute,ReportTimeSecond); //SigfoxModule.UL_ReportTimeS);
 8002b6c:	2001      	movs	r0, #1
	   ReportTimeHour = 1;
 8002b6e:	701c      	strb	r4, [r3, #0]
	   setTime(ReportTimeHour,ReportTimeMinute,ReportTimeSecond); //SigfoxModule.UL_ReportTimeS);
 8002b70:	4b06      	ldr	r3, [pc, #24]	; (8002b8c <MX_RTC_Init+0x9c>)
 8002b72:	781a      	ldrb	r2, [r3, #0]
 8002b74:	4b06      	ldr	r3, [pc, #24]	; (8002b90 <MX_RTC_Init+0xa0>)
 8002b76:	7819      	ldrb	r1, [r3, #0]
 8002b78:	f7ff ff5c 	bl	8002a34 <setTime>
}
 8002b7c:	b006      	add	sp, #24
 8002b7e:	bd70      	pop	{r4, r5, r6, pc}
 8002b80:	20000e90 	.word	0x20000e90
 8002b84:	40002800 	.word	0x40002800
 8002b88:	20000d6d 	.word	0x20000d6d
 8002b8c:	20000d6f 	.word	0x20000d6f
 8002b90:	20000d6e 	.word	0x20000d6e

08002b94 <MX_USART1_UART_Init>:
  /* USER CODE END USART1_Init 0 */

  /* USER CODE BEGIN USART1_Init 1 */

  /* USER CODE END USART1_Init 1 */
  huart1.Instance = USART1;
 8002b94:	480b      	ldr	r0, [pc, #44]	; (8002bc4 <MX_USART1_UART_Init+0x30>)
 8002b96:	4b0c      	ldr	r3, [pc, #48]	; (8002bc8 <MX_USART1_UART_Init+0x34>)
{
 8002b98:	b510      	push	{r4, lr}
  huart1.Instance = USART1;
 8002b9a:	6003      	str	r3, [r0, #0]
  huart1.Init.BaudRate = 9600;
 8002b9c:	2396      	movs	r3, #150	; 0x96
 8002b9e:	019b      	lsls	r3, r3, #6
 8002ba0:	6043      	str	r3, [r0, #4]
  huart1.Init.WordLength = UART_WORDLENGTH_8B;
  huart1.Init.StopBits = UART_STOPBITS_1;
  huart1.Init.Parity = UART_PARITY_NONE;
  huart1.Init.Mode = UART_MODE_TX_RX;
 8002ba2:	220c      	movs	r2, #12
  huart1.Init.WordLength = UART_WORDLENGTH_8B;
 8002ba4:	2300      	movs	r3, #0
  huart1.Init.Mode = UART_MODE_TX_RX;
 8002ba6:	6142      	str	r2, [r0, #20]
  huart1.Init.WordLength = UART_WORDLENGTH_8B;
 8002ba8:	6083      	str	r3, [r0, #8]
  huart1.Init.StopBits = UART_STOPBITS_1;
 8002baa:	60c3      	str	r3, [r0, #12]
  huart1.Init.Parity = UART_PARITY_NONE;
 8002bac:	6103      	str	r3, [r0, #16]
  huart1.Init.HwFlowCtl = UART_HWCONTROL_NONE;
 8002bae:	6183      	str	r3, [r0, #24]
  huart1.Init.OverSampling = UART_OVERSAMPLING_16;
 8002bb0:	61c3      	str	r3, [r0, #28]
  huart1.Init.OneBitSampling = UART_ONE_BIT_SAMPLE_DISABLE;
 8002bb2:	6203      	str	r3, [r0, #32]
  huart1.AdvancedInit.AdvFeatureInit = UART_ADVFEATURE_NO_INIT;
 8002bb4:	6243      	str	r3, [r0, #36]	; 0x24
  if (HAL_UART_Init(&huart1) != HAL_OK)
 8002bb6:	f7fe fbe9 	bl	800138c <HAL_UART_Init>
 8002bba:	2800      	cmp	r0, #0
 8002bbc:	d001      	beq.n	8002bc2 <MX_USART1_UART_Init+0x2e>
  {
    Error_Handler();
 8002bbe:	f000 f93f 	bl	8002e40 <Error_Handler>
  }
  /* USER CODE BEGIN USART1_Init 2 */

  /* USER CODE END USART1_Init 2 */

}
 8002bc2:	bd10      	pop	{r4, pc}
 8002bc4:	20000eb0 	.word	0x20000eb0
 8002bc8:	40013800 	.word	0x40013800

08002bcc <MX_USART2_UART_Init>:
  /* USER CODE END USART2_Init 0 */

  /* USER CODE BEGIN USART2_Init 1 */

  /* USER CODE END USART2_Init 1 */
  huart2.Instance = USART2;
 8002bcc:	480b      	ldr	r0, [pc, #44]	; (8002bfc <MX_USART2_UART_Init+0x30>)
 8002bce:	4b0c      	ldr	r3, [pc, #48]	; (8002c00 <MX_USART2_UART_Init+0x34>)
{
 8002bd0:	b510      	push	{r4, lr}
  huart2.Instance = USART2;
 8002bd2:	6003      	str	r3, [r0, #0]
  huart2.Init.BaudRate = 9600;
 8002bd4:	2396      	movs	r3, #150	; 0x96
 8002bd6:	019b      	lsls	r3, r3, #6
 8002bd8:	6043      	str	r3, [r0, #4]
  huart2.Init.WordLength = UART_WORDLENGTH_8B;
  huart2.Init.StopBits = UART_STOPBITS_1;
  huart2.Init.Parity = UART_PARITY_NONE;
  huart2.Init.Mode = UART_MODE_TX_RX;
 8002bda:	220c      	movs	r2, #12
  huart2.Init.WordLength = UART_WORDLENGTH_8B;
 8002bdc:	2300      	movs	r3, #0
  huart2.Init.Mode = UART_MODE_TX_RX;
 8002bde:	6142      	str	r2, [r0, #20]
  huart2.Init.WordLength = UART_WORDLENGTH_8B;
 8002be0:	6083      	str	r3, [r0, #8]
  huart2.Init.StopBits = UART_STOPBITS_1;
 8002be2:	60c3      	str	r3, [r0, #12]
  huart2.Init.Parity = UART_PARITY_NONE;
 8002be4:	6103      	str	r3, [r0, #16]
  huart2.Init.HwFlowCtl = UART_HWCONTROL_NONE;
 8002be6:	6183      	str	r3, [r0, #24]
  huart2.Init.OverSampling = UART_OVERSAMPLING_16;
 8002be8:	61c3      	str	r3, [r0, #28]
  huart2.Init.OneBitSampling = UART_ONE_BIT_SAMPLE_DISABLE;
 8002bea:	6203      	str	r3, [r0, #32]
  huart2.AdvancedInit.AdvFeatureInit = UART_ADVFEATURE_NO_INIT;
 8002bec:	6243      	str	r3, [r0, #36]	; 0x24
  if (HAL_UART_Init(&huart2) != HAL_OK)
 8002bee:	f7fe fbcd 	bl	800138c <HAL_UART_Init>
 8002bf2:	2800      	cmp	r0, #0
 8002bf4:	d001      	beq.n	8002bfa <MX_USART2_UART_Init+0x2e>
  {
    Error_Handler();
 8002bf6:	f000 f923 	bl	8002e40 <Error_Handler>
  }
  /* USER CODE BEGIN USART2_Init 2 */

  /* USER CODE END USART2_Init 2 */

}
 8002bfa:	bd10      	pop	{r4, pc}
 8002bfc:	20000f20 	.word	0x20000f20
 8002c00:	40004400 	.word	0x40004400

08002c04 <HAL_UART_RxCpltCallback>:
*/
void HAL_UART_RxCpltCallback(UART_HandleTypeDef *huart){

	//sigfoxISRRX(&SigfoxModule, UART_RX.Data);

	if(huart->Instance == USART1){
 8002c04:	4b06      	ldr	r3, [pc, #24]	; (8002c20 <HAL_UART_RxCpltCallback+0x1c>)
 8002c06:	6802      	ldr	r2, [r0, #0]
void HAL_UART_RxCpltCallback(UART_HandleTypeDef *huart){
 8002c08:	b510      	push	{r4, lr}
	if(huart->Instance == USART1){
 8002c0a:	429a      	cmp	r2, r3
 8002c0c:	d107      	bne.n	8002c1e <HAL_UART_RxCpltCallback+0x1a>
		SigfoxISRRX(&SigfoxModule);
 8002c0e:	4805      	ldr	r0, [pc, #20]	; (8002c24 <HAL_UART_RxCpltCallback+0x20>)
 8002c10:	f7ff fe74 	bl	80028fc <SigfoxISRRX>
		HAL_UART_Receive_IT( &huart1,(uint8_t *)&UART_RX.Data,USART_RX_AMOUNT_BYTES);
 8002c14:	2201      	movs	r2, #1
 8002c16:	4904      	ldr	r1, [pc, #16]	; (8002c28 <HAL_UART_RxCpltCallback+0x24>)
 8002c18:	4804      	ldr	r0, [pc, #16]	; (8002c2c <HAL_UART_RxCpltCallback+0x28>)
 8002c1a:	f7fe fa53 	bl	80010c4 <HAL_UART_Receive_IT>
//				UART_RX.Downlink = 0; /* Clear down link request */
//		}
//		HAL_UART_Receive_IT( &huart2,(uint8_t *)&UART_RX.Data,1);
//	}

}
 8002c1e:	bd10      	pop	{r4, pc}
 8002c20:	40013800 	.word	0x40013800
 8002c24:	20000d98 	.word	0x20000d98
 8002c28:	20000fb1 	.word	0x20000fb1
 8002c2c:	20000eb0 	.word	0x20000eb0

08002c30 <qSchedulerSysTick>:
void qSchedulerSysTick(void)

Feed the scheduler system tick. This call is mandatory and must be called once
inside the dedicated timer interrupt service routine (ISR). 
*/    
void qSchedulerSysTick(void){_qSysTick_Epochs_++;}
 8002c30:	4a02      	ldr	r2, [pc, #8]	; (8002c3c <qSchedulerSysTick+0xc>)
 8002c32:	6813      	ldr	r3, [r2, #0]
 8002c34:	3301      	adds	r3, #1
 8002c36:	6013      	str	r3, [r2, #0]
 8002c38:	4770      	bx	lr
 8002c3a:	46c0      	nop			; (mov r8, r8)
 8002c3c:	20000d70 	.word	0x20000d70

08002c40 <SystemClock_Config>:
/**
  * @brief System Clock Configuration
  * @retval None
  */
void SystemClock_Config(void)
{
 8002c40:	b510      	push	{r4, lr}
	  RCC_OscInitTypeDef RCC_OscInitStruct = {0};
	  RCC_ClkInitTypeDef RCC_ClkInitStruct = {0};
 8002c42:	2410      	movs	r4, #16
{
 8002c44:	b096      	sub	sp, #88	; 0x58
	  RCC_OscInitTypeDef RCC_OscInitStruct = {0};
 8002c46:	2230      	movs	r2, #48	; 0x30
 8002c48:	2100      	movs	r1, #0
 8002c4a:	a80a      	add	r0, sp, #40	; 0x28
 8002c4c:	f000 fa5f 	bl	800310e <memset>
	  RCC_ClkInitTypeDef RCC_ClkInitStruct = {0};
 8002c50:	0022      	movs	r2, r4
 8002c52:	2100      	movs	r1, #0
 8002c54:	a801      	add	r0, sp, #4
 8002c56:	f000 fa5a 	bl	800310e <memset>
	  RCC_PeriphCLKInitTypeDef PeriphClkInit = {0};
 8002c5a:	2214      	movs	r2, #20
 8002c5c:	2100      	movs	r1, #0
 8002c5e:	a805      	add	r0, sp, #20
 8002c60:	f000 fa55 	bl	800310e <memset>

	  /**Initializes the CPU, AHB and APB busses clocks
	  */
	  RCC_OscInitStruct.OscillatorType = RCC_OSCILLATORTYPE_HSI|RCC_OSCILLATORTYPE_LSI;
 8002c64:	230a      	movs	r3, #10
	  RCC_OscInitStruct.HSIState = RCC_HSI_ON;
	  RCC_OscInitStruct.HSICalibrationValue = RCC_HSICALIBRATION_DEFAULT;
	  RCC_OscInitStruct.LSIState = RCC_LSI_ON;
	  RCC_OscInitStruct.PLL.PLLState = RCC_PLL_NONE;
	  if (HAL_RCC_OscConfig(&RCC_OscInitStruct) != HAL_OK)
 8002c66:	a80a      	add	r0, sp, #40	; 0x28
	  RCC_OscInitStruct.OscillatorType = RCC_OSCILLATORTYPE_HSI|RCC_OSCILLATORTYPE_LSI;
 8002c68:	930a      	str	r3, [sp, #40]	; 0x28
	  RCC_OscInitStruct.HSIState = RCC_HSI_ON;
 8002c6a:	3b09      	subs	r3, #9
 8002c6c:	930d      	str	r3, [sp, #52]	; 0x34
	  RCC_OscInitStruct.HSICalibrationValue = RCC_HSICALIBRATION_DEFAULT;
 8002c6e:	940e      	str	r4, [sp, #56]	; 0x38
	  RCC_OscInitStruct.LSIState = RCC_LSI_ON;
 8002c70:	9311      	str	r3, [sp, #68]	; 0x44
	  if (HAL_RCC_OscConfig(&RCC_OscInitStruct) != HAL_OK)
 8002c72:	f7fd fca7 	bl	80005c4 <HAL_RCC_OscConfig>
 8002c76:	2800      	cmp	r0, #0
 8002c78:	d001      	beq.n	8002c7e <SystemClock_Config+0x3e>
	  {
	    Error_Handler();
 8002c7a:	f000 f8e1 	bl	8002e40 <Error_Handler>
	  }
	  /**Initializes the CPU, AHB and APB busses clocks
	  */
	  RCC_ClkInitStruct.ClockType = RCC_CLOCKTYPE_HCLK|RCC_CLOCKTYPE_SYSCLK
	                              |RCC_CLOCKTYPE_PCLK1;
	  RCC_ClkInitStruct.SYSCLKSource = RCC_SYSCLKSOURCE_HSI;
 8002c7e:	2100      	movs	r1, #0
	  RCC_ClkInitStruct.ClockType = RCC_CLOCKTYPE_HCLK|RCC_CLOCKTYPE_SYSCLK
 8002c80:	2307      	movs	r3, #7
	  RCC_ClkInitStruct.AHBCLKDivider = RCC_SYSCLK_DIV1;
	  RCC_ClkInitStruct.APB1CLKDivider = RCC_HCLK_DIV1;

	  if (HAL_RCC_ClockConfig(&RCC_ClkInitStruct, FLASH_LATENCY_0) != HAL_OK)
 8002c82:	a801      	add	r0, sp, #4
	  RCC_ClkInitStruct.ClockType = RCC_CLOCKTYPE_HCLK|RCC_CLOCKTYPE_SYSCLK
 8002c84:	9301      	str	r3, [sp, #4]
	  RCC_ClkInitStruct.SYSCLKSource = RCC_SYSCLKSOURCE_HSI;
 8002c86:	9102      	str	r1, [sp, #8]
	  RCC_ClkInitStruct.AHBCLKDivider = RCC_SYSCLK_DIV1;
 8002c88:	9103      	str	r1, [sp, #12]
	  RCC_ClkInitStruct.APB1CLKDivider = RCC_HCLK_DIV1;
 8002c8a:	9104      	str	r1, [sp, #16]
	  if (HAL_RCC_ClockConfig(&RCC_ClkInitStruct, FLASH_LATENCY_0) != HAL_OK)
 8002c8c:	f7fd feb2 	bl	80009f4 <HAL_RCC_ClockConfig>
 8002c90:	2800      	cmp	r0, #0
 8002c92:	d001      	beq.n	8002c98 <SystemClock_Config+0x58>
	  {
	    Error_Handler();
 8002c94:	f000 f8d4 	bl	8002e40 <Error_Handler>
	  }
	  PeriphClkInit.PeriphClockSelection = RCC_PERIPHCLK_USART1|RCC_PERIPHCLK_RTC;
 8002c98:	4b07      	ldr	r3, [pc, #28]	; (8002cb8 <SystemClock_Config+0x78>)
	  PeriphClkInit.Usart1ClockSelection = RCC_USART1CLKSOURCE_PCLK1;
	  PeriphClkInit.RTCClockSelection = RCC_RTCCLKSOURCE_LSI;
	  if (HAL_RCCEx_PeriphCLKConfig(&PeriphClkInit) != HAL_OK)
 8002c9a:	a805      	add	r0, sp, #20
	  PeriphClkInit.PeriphClockSelection = RCC_PERIPHCLK_USART1|RCC_PERIPHCLK_RTC;
 8002c9c:	9305      	str	r3, [sp, #20]
	  PeriphClkInit.Usart1ClockSelection = RCC_USART1CLKSOURCE_PCLK1;
 8002c9e:	2300      	movs	r3, #0
 8002ca0:	9307      	str	r3, [sp, #28]
	  PeriphClkInit.RTCClockSelection = RCC_RTCCLKSOURCE_LSI;
 8002ca2:	2380      	movs	r3, #128	; 0x80
 8002ca4:	009b      	lsls	r3, r3, #2
 8002ca6:	9306      	str	r3, [sp, #24]
	  if (HAL_RCCEx_PeriphCLKConfig(&PeriphClkInit) != HAL_OK)
 8002ca8:	f7fd ff50 	bl	8000b4c <HAL_RCCEx_PeriphCLKConfig>
 8002cac:	2800      	cmp	r0, #0
 8002cae:	d001      	beq.n	8002cb4 <SystemClock_Config+0x74>
	  {
	    Error_Handler();
 8002cb0:	f000 f8c6 	bl	8002e40 <Error_Handler>
	  }
}
 8002cb4:	b016      	add	sp, #88	; 0x58
 8002cb6:	bd10      	pop	{r4, pc}
 8002cb8:	00010001 	.word	0x00010001

08002cbc <TaskFSM>:
  /* USER CODE END 3 */
}


/* USER CODE BEGIN 4 */
void TaskFSM( void* taskParmPtr){
 8002cbc:	b513      	push	{r0, r1, r4, lr}

	TickType_t xLastWakeTime;
	xLastWakeTime = xTaskGetTickCount ();
 8002cbe:	f7ff fa73 	bl	80021a8 <xTaskGetTickCount>
	//xSemaphoreGive(SemTxUart); /* */
	for(;;){
		    vTaskDelayUntil( &xLastWakeTime, 500/ portTICK_RATE_MS);
 8002cc2:	24fa      	movs	r4, #250	; 0xfa
	xLastWakeTime = xTaskGetTickCount ();
 8002cc4:	9001      	str	r0, [sp, #4]
		    vTaskDelayUntil( &xLastWakeTime, 500/ portTICK_RATE_MS);
 8002cc6:	0064      	lsls	r4, r4, #1
 8002cc8:	0021      	movs	r1, r4
 8002cca:	a801      	add	r0, sp, #4
 8002ccc:	f7ff fb58 	bl	8002380 <vTaskDelayUntil>
			PrintString(&huart2, (uint8_t *)"CORE SLEEP\r");
 8002cd0:	4905      	ldr	r1, [pc, #20]	; (8002ce8 <TaskFSM+0x2c>)
 8002cd2:	4806      	ldr	r0, [pc, #24]	; (8002cec <TaskFSM+0x30>)
 8002cd4:	f7ff fd5c 	bl	8002790 <PrintString>
			xSemaphoreGive(SemTxUart);
 8002cd8:	2300      	movs	r3, #0
 8002cda:	4805      	ldr	r0, [pc, #20]	; (8002cf0 <TaskFSM+0x34>)
 8002cdc:	001a      	movs	r2, r3
 8002cde:	0019      	movs	r1, r3
 8002ce0:	6800      	ldr	r0, [r0, #0]
 8002ce2:	f7fe ffe9 	bl	8001cb8 <xQueueGenericSend>
 8002ce6:	e7ef      	b.n	8002cc8 <TaskFSM+0xc>
 8002ce8:	08003161 	.word	0x08003161
 8002cec:	20000f20 	.word	0x20000f20
 8002cf0:	20000d74 	.word	0x20000d74

08002cf4 <TaskTxUartDebug>:

		vTaskDelayUntil( &xLastWakeTime, 100/ portTICK_RATE_MS);

	}
}
void TaskTxUartDebug ( void* taskParmPtr){
 8002cf4:	b510      	push	{r4, lr}
	TickType_t xLastWakeTime;
	xLastWakeTime = xTaskGetTickCount ();
 8002cf6:	f7ff fa57 	bl	80021a8 <xTaskGetTickCount>
	for(;;){
		HAL_GPIO_WritePin(GPIOB, LED_Pin, !HAL_GPIO_ReadPin(GPIOB, LED_Pin));
 8002cfa:	2402      	movs	r4, #2
 8002cfc:	0021      	movs	r1, r4
 8002cfe:	480c      	ldr	r0, [pc, #48]	; (8002d30 <TaskTxUartDebug+0x3c>)
 8002d00:	f7fd fc4c 	bl	800059c <HAL_GPIO_ReadPin>
 8002d04:	4242      	negs	r2, r0
 8002d06:	4142      	adcs	r2, r0
 8002d08:	0021      	movs	r1, r4
 8002d0a:	b2d2      	uxtb	r2, r2
 8002d0c:	4808      	ldr	r0, [pc, #32]	; (8002d30 <TaskTxUartDebug+0x3c>)
 8002d0e:	f7fd fc4b 	bl	80005a8 <HAL_GPIO_WritePin>
		if( pdTRUE == xSemaphoreTake(SemTxUart,portMAX_DELAY) ){
 8002d12:	2300      	movs	r3, #0
 8002d14:	2201      	movs	r2, #1
 8002d16:	4807      	ldr	r0, [pc, #28]	; (8002d34 <TaskTxUartDebug+0x40>)
 8002d18:	4252      	negs	r2, r2
 8002d1a:	0019      	movs	r1, r3
 8002d1c:	6800      	ldr	r0, [r0, #0]
 8002d1e:	f7ff f85a 	bl	8001dd6 <xQueueGenericReceive>
 8002d22:	2801      	cmp	r0, #1
 8002d24:	d1ea      	bne.n	8002cfc <TaskTxUartDebug+0x8>
			PrintString(&huart2, (uint8_t *)"Hola mundo \r\n");
 8002d26:	4904      	ldr	r1, [pc, #16]	; (8002d38 <TaskTxUartDebug+0x44>)
 8002d28:	4804      	ldr	r0, [pc, #16]	; (8002d3c <TaskTxUartDebug+0x48>)
 8002d2a:	f7ff fd31 	bl	8002790 <PrintString>
 8002d2e:	e7e5      	b.n	8002cfc <TaskTxUartDebug+0x8>
 8002d30:	48000400 	.word	0x48000400
 8002d34:	20000d74 	.word	0x20000d74
 8002d38:	0800316d 	.word	0x0800316d
 8002d3c:	20000f20 	.word	0x20000f20

08002d40 <main>:
{
 8002d40:	b57f      	push	{r0, r1, r2, r3, r4, r5, r6, lr}
	if(RCC_CSR_LPWRRSTF & RCC-> CSR){
 8002d42:	4b2d      	ldr	r3, [pc, #180]	; (8002df8 <main+0xb8>)
	 xTaskCreate(TaskFSM, (const char *)"TaskFSM",configMINIMAL_STACK_SIZE*2, NULL, tskIDLE_PRIORITY + 1, NULL);
 8002d44:	2400      	movs	r4, #0
	if(RCC_CSR_LPWRRSTF & RCC-> CSR){
 8002d46:	6a5b      	ldr	r3, [r3, #36]	; 0x24
  HAL_Init();
 8002d48:	f7fd fa98 	bl	800027c <HAL_Init>
  SystemClock_Config();
 8002d4c:	f7ff ff78 	bl	8002c40 <SystemClock_Config>
  MX_GPIO_Init();
 8002d50:	f7ff fe0a 	bl	8002968 <MX_GPIO_Init>
  MX_RTC_Init();
 8002d54:	f7ff fecc 	bl	8002af0 <MX_RTC_Init>
  MX_USART1_UART_Init();
 8002d58:	f7ff ff1c 	bl	8002b94 <MX_USART1_UART_Init>
  MX_USART2_UART_Init();
 8002d5c:	f7ff ff36 	bl	8002bcc <MX_USART2_UART_Init>
	MX_GPIO_Init();
 8002d60:	f7ff fe02 	bl	8002968 <MX_GPIO_Init>
	MX_RTC_Init();
 8002d64:	f7ff fec4 	bl	8002af0 <MX_RTC_Init>
	MX_USART1_UART_Init();
 8002d68:	f7ff ff14 	bl	8002b94 <MX_USART1_UART_Init>
	MX_USART2_UART_Init();
 8002d6c:	f7ff ff2e 	bl	8002bcc <MX_USART2_UART_Init>
	Debounce_Init(&Fsm_DebounceData,40, PULL_DOWN);
 8002d70:	2206      	movs	r2, #6
 8002d72:	2128      	movs	r1, #40	; 0x28
 8002d74:	4821      	ldr	r0, [pc, #132]	; (8002dfc <main+0xbc>)
 8002d76:	f7ff fd34 	bl	80027e2 <Debounce_Init>
	 xTaskCreate(TaskFSM, (const char *)"TaskFSM",configMINIMAL_STACK_SIZE*2, NULL, tskIDLE_PRIORITY + 1, NULL);
 8002d7a:	2601      	movs	r6, #1
 8002d7c:	2280      	movs	r2, #128	; 0x80
 8002d7e:	0023      	movs	r3, r4
 8002d80:	0052      	lsls	r2, r2, #1
 8002d82:	491f      	ldr	r1, [pc, #124]	; (8002e00 <main+0xc0>)
 8002d84:	9401      	str	r4, [sp, #4]
 8002d86:	9600      	str	r6, [sp, #0]
 8002d88:	481e      	ldr	r0, [pc, #120]	; (8002e04 <main+0xc4>)
 8002d8a:	f7ff f917 	bl	8001fbc <xTaskCreate>
	 xTaskCreate(TaskTxUartDebug, (const char *)"TaskTxUartDebug",configMINIMAL_STACK_SIZE*2, NULL, tskIDLE_PRIORITY + 1, NULL);
 8002d8e:	2280      	movs	r2, #128	; 0x80
 8002d90:	0023      	movs	r3, r4
 8002d92:	0052      	lsls	r2, r2, #1
 8002d94:	491c      	ldr	r1, [pc, #112]	; (8002e08 <main+0xc8>)
 8002d96:	9401      	str	r4, [sp, #4]
 8002d98:	9600      	str	r6, [sp, #0]
 8002d9a:	481c      	ldr	r0, [pc, #112]	; (8002e0c <main+0xcc>)
 8002d9c:	f7ff f90e 	bl	8001fbc <xTaskCreate>
	SigfoxModule.StatusFlag = SigfoxInit(&SigfoxModule, RSTCtrl_Sigfox, RST2Ctrl_Sigfox, UART_SIGFOX_TX_STM, UART_SIGFOX_RX_STM ,UL_RCZ4, DiscrimateFrameType);
 8002da0:	4b1b      	ldr	r3, [pc, #108]	; (8002e10 <main+0xd0>)
 8002da2:	4d1c      	ldr	r5, [pc, #112]	; (8002e14 <main+0xd4>)
 8002da4:	9302      	str	r3, [sp, #8]
 8002da6:	4b1c      	ldr	r3, [pc, #112]	; (8002e18 <main+0xd8>)
 8002da8:	4a1c      	ldr	r2, [pc, #112]	; (8002e1c <main+0xdc>)
 8002daa:	9301      	str	r3, [sp, #4]
 8002dac:	4b1c      	ldr	r3, [pc, #112]	; (8002e20 <main+0xe0>)
 8002dae:	491d      	ldr	r1, [pc, #116]	; (8002e24 <main+0xe4>)
 8002db0:	9300      	str	r3, [sp, #0]
 8002db2:	0028      	movs	r0, r5
 8002db4:	4b1c      	ldr	r3, [pc, #112]	; (8002e28 <main+0xe8>)
 8002db6:	f7ff fd77 	bl	80028a8 <SigfoxInit>
 8002dba:	002b      	movs	r3, r5
 8002dbc:	33de      	adds	r3, #222	; 0xde
 8002dbe:	7018      	strb	r0, [r3, #0]
	SigfoxWakeUP(&SigfoxModule);
 8002dc0:	0028      	movs	r0, r5
 8002dc2:	f7ff fd8f 	bl	80028e4 <SigfoxWakeUP>
	PrintString(&huart2, (uint8_t *)"Inicio del sistema\r\n");
 8002dc6:	4919      	ldr	r1, [pc, #100]	; (8002e2c <main+0xec>)
 8002dc8:	4819      	ldr	r0, [pc, #100]	; (8002e30 <main+0xf0>)
 8002dca:	f7ff fce1 	bl	8002790 <PrintString>
	HAL_PWR_EnableWakeUpPin(PWR_WAKEUP_PIN1);
 8002dce:	2080      	movs	r0, #128	; 0x80
 8002dd0:	0040      	lsls	r0, r0, #1
 8002dd2:	f7fd fbef 	bl	80005b4 <HAL_PWR_EnableWakeUpPin>
	SemTxUart = xSemaphoreCreateBinary();
 8002dd6:	2203      	movs	r2, #3
 8002dd8:	0021      	movs	r1, r4
 8002dda:	0030      	movs	r0, r6
 8002ddc:	f7fe ff4f 	bl	8001c7e <xQueueGenericCreate>
 8002de0:	4b14      	ldr	r3, [pc, #80]	; (8002e34 <main+0xf4>)
 8002de2:	6018      	str	r0, [r3, #0]
  osKernelStart();
 8002de4:	f7fe fcb0 	bl	8001748 <osKernelStart>
		SigfoxCommandSend(&SigfoxModule, "AT\r");
 8002de8:	0028      	movs	r0, r5
 8002dea:	4913      	ldr	r1, [pc, #76]	; (8002e38 <main+0xf8>)
 8002dec:	f7ff fdb1 	bl	8002952 <SigfoxCommandSend>
		HAL_Delay(3000);
 8002df0:	4812      	ldr	r0, [pc, #72]	; (8002e3c <main+0xfc>)
 8002df2:	f7fd fa61 	bl	80002b8 <HAL_Delay>
 8002df6:	e7f7      	b.n	8002de8 <main+0xa8>
 8002df8:	40021000 	.word	0x40021000
 8002dfc:	20000d7c 	.word	0x20000d7c
 8002e00:	0800317b 	.word	0x0800317b
 8002e04:	08002cbd 	.word	0x08002cbd
 8002e08:	08003183 	.word	0x08003183
 8002e0c:	08002cf5 	.word	0x08002cf5
 8002e10:	080027ad 	.word	0x080027ad
 8002e14:	20000d98 	.word	0x20000d98
 8002e18:	36e24b00 	.word	0x36e24b00
 8002e1c:	08002751 	.word	0x08002751
 8002e20:	08002781 	.word	0x08002781
 8002e24:	0800273d 	.word	0x0800273d
 8002e28:	08002765 	.word	0x08002765
 8002e2c:	08003193 	.word	0x08003193
 8002e30:	20000f20 	.word	0x20000f20
 8002e34:	20000d74 	.word	0x20000d74
 8002e38:	080031a8 	.word	0x080031a8
 8002e3c:	00000bb8 	.word	0x00000bb8

08002e40 <Error_Handler>:
{
  /* USER CODE BEGIN Error_Handler_Debug */
	/* User can add his own implementation to report the HAL error return state */

  /* USER CODE END Error_Handler_Debug */
}
 8002e40:	4770      	bx	lr
	...

08002e44 <HAL_MspInit>:
/* USER CODE END 0 */
/**
  * Initializes the Global MSP.
  */
void HAL_MspInit(void)
{
 8002e44:	b507      	push	{r0, r1, r2, lr}
  /* USER CODE BEGIN MspInit 0 */

  /* USER CODE END MspInit 0 */

  __HAL_RCC_SYSCFG_CLK_ENABLE();
 8002e46:	2001      	movs	r0, #1
 8002e48:	4b0b      	ldr	r3, [pc, #44]	; (8002e78 <HAL_MspInit+0x34>)
 8002e4a:	6999      	ldr	r1, [r3, #24]
 8002e4c:	4301      	orrs	r1, r0
 8002e4e:	6199      	str	r1, [r3, #24]
  __HAL_RCC_PWR_CLK_ENABLE();
 8002e50:	2180      	movs	r1, #128	; 0x80
  __HAL_RCC_SYSCFG_CLK_ENABLE();
 8002e52:	699a      	ldr	r2, [r3, #24]
  __HAL_RCC_PWR_CLK_ENABLE();
 8002e54:	0549      	lsls	r1, r1, #21
  __HAL_RCC_SYSCFG_CLK_ENABLE();
 8002e56:	4002      	ands	r2, r0
 8002e58:	9200      	str	r2, [sp, #0]
 8002e5a:	9a00      	ldr	r2, [sp, #0]
  __HAL_RCC_PWR_CLK_ENABLE();
 8002e5c:	69da      	ldr	r2, [r3, #28]

  /* System interrupt init*/
  /* PendSV_IRQn interrupt configuration */
  HAL_NVIC_SetPriority(PendSV_IRQn, 3, 0);
 8002e5e:	3803      	subs	r0, #3
  __HAL_RCC_PWR_CLK_ENABLE();
 8002e60:	430a      	orrs	r2, r1
 8002e62:	61da      	str	r2, [r3, #28]
 8002e64:	69db      	ldr	r3, [r3, #28]
  HAL_NVIC_SetPriority(PendSV_IRQn, 3, 0);
 8002e66:	2200      	movs	r2, #0
  __HAL_RCC_PWR_CLK_ENABLE();
 8002e68:	400b      	ands	r3, r1
 8002e6a:	9301      	str	r3, [sp, #4]
  HAL_NVIC_SetPriority(PendSV_IRQn, 3, 0);
 8002e6c:	2103      	movs	r1, #3
  __HAL_RCC_PWR_CLK_ENABLE();
 8002e6e:	9b01      	ldr	r3, [sp, #4]
  HAL_NVIC_SetPriority(PendSV_IRQn, 3, 0);
 8002e70:	f7fd fa32 	bl	80002d8 <HAL_NVIC_SetPriority>

  /* USER CODE BEGIN MspInit 1 */

  /* USER CODE END MspInit 1 */
}
 8002e74:	bd07      	pop	{r0, r1, r2, pc}
 8002e76:	46c0      	nop			; (mov r8, r8)
 8002e78:	40021000 	.word	0x40021000

08002e7c <HAL_RTC_MspInit>:
* @retval None
*/
void HAL_RTC_MspInit(RTC_HandleTypeDef* hrtc)
{

  if(hrtc->Instance==RTC)
 8002e7c:	4b09      	ldr	r3, [pc, #36]	; (8002ea4 <HAL_RTC_MspInit+0x28>)
 8002e7e:	6802      	ldr	r2, [r0, #0]
{
 8002e80:	b510      	push	{r4, lr}
  if(hrtc->Instance==RTC)
 8002e82:	429a      	cmp	r2, r3
 8002e84:	d10d      	bne.n	8002ea2 <HAL_RTC_MspInit+0x26>
  {
  /* USER CODE BEGIN RTC_MspInit 0 */

  /* USER CODE END RTC_MspInit 0 */
    /* Peripheral clock enable */
    __HAL_RCC_RTC_ENABLE();
 8002e86:	2380      	movs	r3, #128	; 0x80
 8002e88:	4a07      	ldr	r2, [pc, #28]	; (8002ea8 <HAL_RTC_MspInit+0x2c>)
 8002e8a:	021b      	lsls	r3, r3, #8
 8002e8c:	6a11      	ldr	r1, [r2, #32]
    /* RTC interrupt Init */
    HAL_NVIC_SetPriority(RTC_IRQn, 3, 0);
 8002e8e:	2002      	movs	r0, #2
    __HAL_RCC_RTC_ENABLE();
 8002e90:	430b      	orrs	r3, r1
 8002e92:	6213      	str	r3, [r2, #32]
    HAL_NVIC_SetPriority(RTC_IRQn, 3, 0);
 8002e94:	2103      	movs	r1, #3
 8002e96:	2200      	movs	r2, #0
 8002e98:	f7fd fa1e 	bl	80002d8 <HAL_NVIC_SetPriority>
    HAL_NVIC_EnableIRQ(RTC_IRQn);
 8002e9c:	2002      	movs	r0, #2
 8002e9e:	f7fd fa4b 	bl	8000338 <HAL_NVIC_EnableIRQ>
  /* USER CODE BEGIN RTC_MspInit 1 */

  /* USER CODE END RTC_MspInit 1 */
  }

}
 8002ea2:	bd10      	pop	{r4, pc}
 8002ea4:	40002800 	.word	0x40002800
 8002ea8:	40021000 	.word	0x40021000

08002eac <HAL_UART_MspInit>:
* This function configures the hardware resources used in this example
* @param huart: UART handle pointer
* @retval None
*/
void HAL_UART_MspInit(UART_HandleTypeDef* huart)
{
 8002eac:	b530      	push	{r4, r5, lr}
 8002eae:	0005      	movs	r5, r0
 8002eb0:	b08b      	sub	sp, #44	; 0x2c

  GPIO_InitTypeDef GPIO_InitStruct = {0};
 8002eb2:	2214      	movs	r2, #20
 8002eb4:	2100      	movs	r1, #0
 8002eb6:	a805      	add	r0, sp, #20
 8002eb8:	f000 f929 	bl	800310e <memset>
  if(huart->Instance==USART1)
 8002ebc:	682b      	ldr	r3, [r5, #0]
 8002ebe:	4a33      	ldr	r2, [pc, #204]	; (8002f8c <HAL_UART_MspInit+0xe0>)
 8002ec0:	4293      	cmp	r3, r2
 8002ec2:	d140      	bne.n	8002f46 <HAL_UART_MspInit+0x9a>
  {
  /* USER CODE BEGIN USART1_MspInit 0 */

  /* USER CODE END USART1_MspInit 0 */
    /* Peripheral clock enable */
    __HAL_RCC_USART1_CLK_ENABLE();
 8002ec4:	2080      	movs	r0, #128	; 0x80
 8002ec6:	4b32      	ldr	r3, [pc, #200]	; (8002f90 <HAL_UART_MspInit+0xe4>)
 8002ec8:	01c0      	lsls	r0, r0, #7
 8002eca:	6999      	ldr	r1, [r3, #24]
 8002ecc:	4301      	orrs	r1, r0
 8002ece:	6199      	str	r1, [r3, #24]
  
    __HAL_RCC_GPIOA_CLK_ENABLE();
 8002ed0:	2180      	movs	r1, #128	; 0x80
    __HAL_RCC_USART1_CLK_ENABLE();
 8002ed2:	699a      	ldr	r2, [r3, #24]
    __HAL_RCC_GPIOA_CLK_ENABLE();
 8002ed4:	0289      	lsls	r1, r1, #10
    __HAL_RCC_USART1_CLK_ENABLE();
 8002ed6:	4002      	ands	r2, r0
 8002ed8:	9201      	str	r2, [sp, #4]
 8002eda:	9a01      	ldr	r2, [sp, #4]
    __HAL_RCC_GPIOA_CLK_ENABLE();
 8002edc:	695a      	ldr	r2, [r3, #20]
    GPIO_InitStruct.Pin = GPIO_PIN_9|GPIO_PIN_10;
    GPIO_InitStruct.Mode = GPIO_MODE_AF_PP;
    GPIO_InitStruct.Pull = GPIO_NOPULL;
    GPIO_InitStruct.Speed = GPIO_SPEED_FREQ_HIGH;
    GPIO_InitStruct.Alternate = GPIO_AF1_USART1;
    HAL_GPIO_Init(GPIOA, &GPIO_InitStruct);
 8002ede:	2090      	movs	r0, #144	; 0x90
    __HAL_RCC_GPIOA_CLK_ENABLE();
 8002ee0:	430a      	orrs	r2, r1
 8002ee2:	615a      	str	r2, [r3, #20]
 8002ee4:	695b      	ldr	r3, [r3, #20]
    HAL_GPIO_Init(GPIOA, &GPIO_InitStruct);
 8002ee6:	05c0      	lsls	r0, r0, #23
    __HAL_RCC_GPIOA_CLK_ENABLE();
 8002ee8:	400b      	ands	r3, r1
 8002eea:	9302      	str	r3, [sp, #8]
 8002eec:	9b02      	ldr	r3, [sp, #8]
    GPIO_InitStruct.Pin = GPIO_PIN_9|GPIO_PIN_10;
 8002eee:	23c0      	movs	r3, #192	; 0xc0
 8002ef0:	00db      	lsls	r3, r3, #3
 8002ef2:	9305      	str	r3, [sp, #20]
    GPIO_InitStruct.Mode = GPIO_MODE_AF_PP;
 8002ef4:	2302      	movs	r3, #2
 8002ef6:	9306      	str	r3, [sp, #24]
    GPIO_InitStruct.Speed = GPIO_SPEED_FREQ_HIGH;
 8002ef8:	3301      	adds	r3, #1
 8002efa:	9308      	str	r3, [sp, #32]
    HAL_GPIO_Init(GPIOA, &GPIO_InitStruct);
 8002efc:	a905      	add	r1, sp, #20
    GPIO_InitStruct.Alternate = GPIO_AF1_USART1;
 8002efe:	3b02      	subs	r3, #2
 8002f00:	9309      	str	r3, [sp, #36]	; 0x24
    HAL_GPIO_Init(GPIOA, &GPIO_InitStruct);
 8002f02:	f7fd fa9b 	bl	800043c <HAL_GPIO_Init>

    /* USART1 DMA Init */
    /* USART1_RX Init */
    hdma_usart1_rx.Instance = DMA1_Channel3;
 8002f06:	4c23      	ldr	r4, [pc, #140]	; (8002f94 <HAL_UART_MspInit+0xe8>)
 8002f08:	4b23      	ldr	r3, [pc, #140]	; (8002f98 <HAL_UART_MspInit+0xec>)
    hdma_usart1_rx.Init.Direction = DMA_PERIPH_TO_MEMORY;
    hdma_usart1_rx.Init.PeriphInc = DMA_PINC_DISABLE;
    hdma_usart1_rx.Init.MemInc = DMA_MINC_ENABLE;
 8002f0a:	2280      	movs	r2, #128	; 0x80
    hdma_usart1_rx.Instance = DMA1_Channel3;
 8002f0c:	6023      	str	r3, [r4, #0]
    hdma_usart1_rx.Init.Direction = DMA_PERIPH_TO_MEMORY;
 8002f0e:	2300      	movs	r3, #0
    hdma_usart1_rx.Init.MemInc = DMA_MINC_ENABLE;
 8002f10:	60e2      	str	r2, [r4, #12]
    hdma_usart1_rx.Init.PeriphDataAlignment = DMA_PDATAALIGN_BYTE;
    hdma_usart1_rx.Init.MemDataAlignment = DMA_MDATAALIGN_BYTE;
    hdma_usart1_rx.Init.Mode = DMA_CIRCULAR;
    hdma_usart1_rx.Init.Priority = DMA_PRIORITY_LOW;
    if (HAL_DMA_Init(&hdma_usart1_rx) != HAL_OK)
 8002f12:	0020      	movs	r0, r4
    hdma_usart1_rx.Init.Mode = DMA_CIRCULAR;
 8002f14:	3a60      	subs	r2, #96	; 0x60
    hdma_usart1_rx.Init.Direction = DMA_PERIPH_TO_MEMORY;
 8002f16:	6063      	str	r3, [r4, #4]
    hdma_usart1_rx.Init.PeriphInc = DMA_PINC_DISABLE;
 8002f18:	60a3      	str	r3, [r4, #8]
    hdma_usart1_rx.Init.PeriphDataAlignment = DMA_PDATAALIGN_BYTE;
 8002f1a:	6123      	str	r3, [r4, #16]
    hdma_usart1_rx.Init.MemDataAlignment = DMA_MDATAALIGN_BYTE;
 8002f1c:	6163      	str	r3, [r4, #20]
    hdma_usart1_rx.Init.Mode = DMA_CIRCULAR;
 8002f1e:	61a2      	str	r2, [r4, #24]
    hdma_usart1_rx.Init.Priority = DMA_PRIORITY_LOW;
 8002f20:	61e3      	str	r3, [r4, #28]
    if (HAL_DMA_Init(&hdma_usart1_rx) != HAL_OK)
 8002f22:	f7fd fa31 	bl	8000388 <HAL_DMA_Init>
 8002f26:	2800      	cmp	r0, #0
 8002f28:	d001      	beq.n	8002f2e <HAL_UART_MspInit+0x82>
    {
      Error_Handler();
 8002f2a:	f7ff ff89 	bl	8002e40 <Error_Handler>
    }

   __HAL_LINKDMA(huart,hdmarx,hdma_usart1_rx);

    /* USART1 interrupt Init */
    HAL_NVIC_SetPriority(USART1_IRQn, 3, 0);
 8002f2e:	201b      	movs	r0, #27
   __HAL_LINKDMA(huart,hdmarx,hdma_usart1_rx);
 8002f30:	666c      	str	r4, [r5, #100]	; 0x64
    HAL_NVIC_SetPriority(USART1_IRQn, 3, 0);
 8002f32:	2200      	movs	r2, #0
 8002f34:	2103      	movs	r1, #3
   __HAL_LINKDMA(huart,hdmarx,hdma_usart1_rx);
 8002f36:	6265      	str	r5, [r4, #36]	; 0x24
    HAL_NVIC_SetPriority(USART1_IRQn, 3, 0);
 8002f38:	f7fd f9ce 	bl	80002d8 <HAL_NVIC_SetPriority>
    HAL_NVIC_EnableIRQ(USART1_IRQn);
 8002f3c:	201b      	movs	r0, #27
 8002f3e:	f7fd f9fb 	bl	8000338 <HAL_NVIC_EnableIRQ>
  /* USER CODE BEGIN USART2_MspInit 1 */

  /* USER CODE END USART2_MspInit 1 */
  }

}
 8002f42:	b00b      	add	sp, #44	; 0x2c
 8002f44:	bd30      	pop	{r4, r5, pc}
  else if(huart->Instance==USART2)
 8002f46:	4a15      	ldr	r2, [pc, #84]	; (8002f9c <HAL_UART_MspInit+0xf0>)
 8002f48:	4293      	cmp	r3, r2
 8002f4a:	d1fa      	bne.n	8002f42 <HAL_UART_MspInit+0x96>
    __HAL_RCC_USART2_CLK_ENABLE();
 8002f4c:	2280      	movs	r2, #128	; 0x80
 8002f4e:	4b10      	ldr	r3, [pc, #64]	; (8002f90 <HAL_UART_MspInit+0xe4>)
 8002f50:	0292      	lsls	r2, r2, #10
 8002f52:	69d9      	ldr	r1, [r3, #28]
    HAL_GPIO_Init(GPIOA, &GPIO_InitStruct);
 8002f54:	2090      	movs	r0, #144	; 0x90
    __HAL_RCC_USART2_CLK_ENABLE();
 8002f56:	4311      	orrs	r1, r2
 8002f58:	61d9      	str	r1, [r3, #28]
 8002f5a:	69d9      	ldr	r1, [r3, #28]
    HAL_GPIO_Init(GPIOA, &GPIO_InitStruct);
 8002f5c:	05c0      	lsls	r0, r0, #23
    __HAL_RCC_USART2_CLK_ENABLE();
 8002f5e:	4011      	ands	r1, r2
 8002f60:	9103      	str	r1, [sp, #12]
 8002f62:	9903      	ldr	r1, [sp, #12]
    __HAL_RCC_GPIOA_CLK_ENABLE();
 8002f64:	6959      	ldr	r1, [r3, #20]
 8002f66:	4311      	orrs	r1, r2
 8002f68:	6159      	str	r1, [r3, #20]
 8002f6a:	695b      	ldr	r3, [r3, #20]
    HAL_GPIO_Init(GPIOA, &GPIO_InitStruct);
 8002f6c:	a905      	add	r1, sp, #20
    __HAL_RCC_GPIOA_CLK_ENABLE();
 8002f6e:	401a      	ands	r2, r3
 8002f70:	9204      	str	r2, [sp, #16]
 8002f72:	9b04      	ldr	r3, [sp, #16]
    GPIO_InitStruct.Pin = GPIO_PIN_2|GPIO_PIN_3;
 8002f74:	230c      	movs	r3, #12
 8002f76:	9305      	str	r3, [sp, #20]
    GPIO_InitStruct.Mode = GPIO_MODE_AF_PP;
 8002f78:	3b0a      	subs	r3, #10
 8002f7a:	9306      	str	r3, [sp, #24]
    GPIO_InitStruct.Speed = GPIO_SPEED_FREQ_HIGH;
 8002f7c:	3301      	adds	r3, #1
 8002f7e:	9308      	str	r3, [sp, #32]
    GPIO_InitStruct.Alternate = GPIO_AF1_USART2;
 8002f80:	3b02      	subs	r3, #2
 8002f82:	9309      	str	r3, [sp, #36]	; 0x24
    HAL_GPIO_Init(GPIOA, &GPIO_InitStruct);
 8002f84:	f7fd fa5a 	bl	800043c <HAL_GPIO_Init>
}
 8002f88:	e7db      	b.n	8002f42 <HAL_UART_MspInit+0x96>
 8002f8a:	46c0      	nop			; (mov r8, r8)
 8002f8c:	40013800 	.word	0x40013800
 8002f90:	40021000 	.word	0x40021000
 8002f94:	20000fb8 	.word	0x20000fb8
 8002f98:	40020030 	.word	0x40020030
 8002f9c:	40004400 	.word	0x40004400

08002fa0 <NMI_Handler>:
 8002fa0:	4770      	bx	lr

08002fa2 <HardFault_Handler>:

/**
  * @brief This function handles Hard fault interrupt.
  */
void HardFault_Handler(void)
{
 8002fa2:	e7fe      	b.n	8002fa2 <HardFault_Handler>

08002fa4 <SysTick_Handler>:

/**
  * @brief This function handles System tick timer.
  */
void SysTick_Handler(void)
{
 8002fa4:	b510      	push	{r4, lr}
  /* USER CODE BEGIN SysTick_IRQn 0 */

  /* USER CODE END SysTick_IRQn 0 */
  HAL_IncTick();
 8002fa6:	f7fd f979 	bl	800029c <HAL_IncTick>
  osSystickHandler();
 8002faa:	f7fe fbd2 	bl	8001752 <osSystickHandler>
  /* USER CODE BEGIN SysTick_IRQn 1 */
  HAL_SYSTICK_IRQHandler();
 8002fae:	f7fd f9e7 	bl	8000380 <HAL_SYSTICK_IRQHandler>
  /* USER CODE END SysTick_IRQn 1 */
}
 8002fb2:	bd10      	pop	{r4, pc}

08002fb4 <RTC_IRQHandler>:

/**
  * @brief This function handles RTC interrupt through EXTI lines 17, 19 and 20.
  */
void RTC_IRQHandler(void)
{
 8002fb4:	b510      	push	{r4, lr}
  /* USER CODE BEGIN RTC_IRQn 0 */

  /* USER CODE END RTC_IRQn 0 */
  HAL_RTC_AlarmIRQHandler(&hrtc);
 8002fb6:	4802      	ldr	r0, [pc, #8]	; (8002fc0 <RTC_IRQHandler+0xc>)
 8002fb8:	f7fd fe54 	bl	8000c64 <HAL_RTC_AlarmIRQHandler>
  /* USER CODE BEGIN RTC_IRQn 1 */

  /* USER CODE END RTC_IRQn 1 */
}
 8002fbc:	bd10      	pop	{r4, pc}
 8002fbe:	46c0      	nop			; (mov r8, r8)
 8002fc0:	20000e90 	.word	0x20000e90

08002fc4 <DMA1_Channel2_3_IRQHandler>:
  /* USER CODE END DMA1_Channel2_3_IRQn 0 */
  //HAL_DMA_IRQHandler(&hdma_usart1_rx);
  /* USER CODE BEGIN DMA1_Channel2_3_IRQn 1 */

  /* USER CODE END DMA1_Channel2_3_IRQn 1 */
}
 8002fc4:	4770      	bx	lr
	...

08002fc8 <USART1_IRQHandler>:

/**
  * @brief This function handles USART1 global interrupt.
  */
void USART1_IRQHandler(void)
{
 8002fc8:	b510      	push	{r4, lr}
  /* USER CODE BEGIN USART1_IRQn 0 */

  /* USER CODE END USART1_IRQn 0 */
  HAL_UART_IRQHandler(&huart1);
 8002fca:	4802      	ldr	r0, [pc, #8]	; (8002fd4 <USART1_IRQHandler+0xc>)
 8002fcc:	f7fe fb30 	bl	8001630 <HAL_UART_IRQHandler>
  /* USER CODE BEGIN USART1_IRQn 1 */

  /* USER CODE END USART1_IRQn 1 */
}
 8002fd0:	bd10      	pop	{r4, pc}
 8002fd2:	46c0      	nop			; (mov r8, r8)
 8002fd4:	20000eb0 	.word	0x20000eb0

08002fd8 <SystemInit>:
  */
void SystemInit(void)
{
  /* Reset the RCC clock configuration to the default reset state ------------*/
  /* Set HSION bit */
  RCC->CR |= (uint32_t)0x00000001U;
 8002fd8:	2101      	movs	r1, #1
 8002fda:	4b13      	ldr	r3, [pc, #76]	; (8003028 <SystemInit+0x50>)
#if defined (STM32F051x8) || defined (STM32F058x8)
  /* Reset SW[1:0], HPRE[3:0], PPRE[2:0], ADCPRE and MCOSEL[2:0] bits */
  RCC->CFGR &= (uint32_t)0xF8FFB80CU;
#else
  /* Reset SW[1:0], HPRE[3:0], PPRE[2:0], ADCPRE, MCOSEL[2:0], MCOPRE[2:0] and PLLNODIV bits */
  RCC->CFGR &= (uint32_t)0x08FFB80CU;
 8002fdc:	4813      	ldr	r0, [pc, #76]	; (800302c <SystemInit+0x54>)
  RCC->CR |= (uint32_t)0x00000001U;
 8002fde:	681a      	ldr	r2, [r3, #0]
 8002fe0:	430a      	orrs	r2, r1
 8002fe2:	601a      	str	r2, [r3, #0]
  RCC->CFGR &= (uint32_t)0x08FFB80CU;
 8002fe4:	685a      	ldr	r2, [r3, #4]
 8002fe6:	4002      	ands	r2, r0
 8002fe8:	605a      	str	r2, [r3, #4]
#endif /* STM32F051x8 or STM32F058x8 */
  
  /* Reset HSEON, CSSON and PLLON bits */
  RCC->CR &= (uint32_t)0xFEF6FFFFU;
 8002fea:	681a      	ldr	r2, [r3, #0]
 8002fec:	4810      	ldr	r0, [pc, #64]	; (8003030 <SystemInit+0x58>)
 8002fee:	4002      	ands	r2, r0
 8002ff0:	601a      	str	r2, [r3, #0]

  /* Reset HSEBYP bit */
  RCC->CR &= (uint32_t)0xFFFBFFFFU;
 8002ff2:	681a      	ldr	r2, [r3, #0]
 8002ff4:	480f      	ldr	r0, [pc, #60]	; (8003034 <SystemInit+0x5c>)
 8002ff6:	4002      	ands	r2, r0
 8002ff8:	601a      	str	r2, [r3, #0]

  /* Reset PLLSRC, PLLXTPRE and PLLMUL[3:0] bits */
  RCC->CFGR &= (uint32_t)0xFFC0FFFFU;
 8002ffa:	685a      	ldr	r2, [r3, #4]
 8002ffc:	480e      	ldr	r0, [pc, #56]	; (8003038 <SystemInit+0x60>)
 8002ffe:	4002      	ands	r2, r0

  /* Reset PREDIV[3:0] bits */
  RCC->CFGR2 &= (uint32_t)0xFFFFFFF0U;
 8003000:	200f      	movs	r0, #15
  RCC->CFGR &= (uint32_t)0xFFC0FFFFU;
 8003002:	605a      	str	r2, [r3, #4]
  RCC->CFGR2 &= (uint32_t)0xFFFFFFF0U;
 8003004:	6ada      	ldr	r2, [r3, #44]	; 0x2c
 8003006:	4382      	bics	r2, r0
 8003008:	62da      	str	r2, [r3, #44]	; 0x2c
#elif defined (STM32F042x6) || defined (STM32F048xx)
  /* Reset USART1SW[1:0], I2C1SW, CECSW, USBSW and ADCSW bits */
  RCC->CFGR3 &= (uint32_t)0xFFFFFE2CU;
#elif defined (STM32F070x6) || defined (STM32F070xB)
  /* Reset USART1SW[1:0], I2C1SW, USBSW and ADCSW bits */
  RCC->CFGR3 &= (uint32_t)0xFFFFFE6CU;
 800300a:	6b1a      	ldr	r2, [r3, #48]	; 0x30
 800300c:	480b      	ldr	r0, [pc, #44]	; (800303c <SystemInit+0x64>)
 800300e:	4002      	ands	r2, r0
 8003010:	631a      	str	r2, [r3, #48]	; 0x30
  /* Set default USB clock to PLLCLK, since there is no HSI48 */
  RCC->CFGR3 |= (uint32_t)0x00000080U;  
 8003012:	2280      	movs	r2, #128	; 0x80
 8003014:	6b18      	ldr	r0, [r3, #48]	; 0x30
 8003016:	4302      	orrs	r2, r0
 8003018:	631a      	str	r2, [r3, #48]	; 0x30
#else
 #warning "No target selected"
#endif

  /* Reset HSI14 bit */
  RCC->CR2 &= (uint32_t)0xFFFFFFFEU;
 800301a:	6b5a      	ldr	r2, [r3, #52]	; 0x34
 800301c:	438a      	bics	r2, r1
 800301e:	635a      	str	r2, [r3, #52]	; 0x34

  /* Disable all interrupts */
  RCC->CIR = 0x00000000U;
 8003020:	2200      	movs	r2, #0
 8003022:	609a      	str	r2, [r3, #8]

}
 8003024:	4770      	bx	lr
 8003026:	46c0      	nop			; (mov r8, r8)
 8003028:	40021000 	.word	0x40021000
 800302c:	08ffb80c 	.word	0x08ffb80c
 8003030:	fef6ffff 	.word	0xfef6ffff
 8003034:	fffbffff 	.word	0xfffbffff
 8003038:	ffc0ffff 	.word	0xffc0ffff
 800303c:	fffffe6c 	.word	0xfffffe6c

08003040 <Reset_Handler>:

  .section .text.Reset_Handler
  .weak Reset_Handler
  .type Reset_Handler, %function
Reset_Handler:
  ldr   r0, =_estack
 8003040:	4813      	ldr	r0, [pc, #76]	; (8003090 <LoopForever+0x2>)
  mov   sp, r0          /* set stack pointer */
 8003042:	4685      	mov	sp, r0

/*Check if boot space corresponds to test memory*/
 
    LDR R0,=0x00000004
 8003044:	2004      	movs	r0, #4
    LDR R1, [R0]
 8003046:	6801      	ldr	r1, [r0, #0]
    LSRS R1, R1, #24
 8003048:	0e09      	lsrs	r1, r1, #24
    LDR R2,=0x1F
 800304a:	221f      	movs	r2, #31
    CMP R1, R2
 800304c:	4291      	cmp	r1, r2
    BNE ApplicationStart
 800304e:	d105      	bne.n	800305c <ApplicationStart>

 /*SYSCFG clock enable*/

    LDR R0,=0x40021018
 8003050:	4810      	ldr	r0, [pc, #64]	; (8003094 <LoopForever+0x6>)
    LDR R1,=0x00000001
 8003052:	2101      	movs	r1, #1
    STR R1, [R0]
 8003054:	6001      	str	r1, [r0, #0]

/*Set CFGR1 register with flash memory remap at address 0*/
    LDR R0,=0x40010000
 8003056:	4810      	ldr	r0, [pc, #64]	; (8003098 <LoopForever+0xa>)
    LDR R1,=0x00000000
 8003058:	2100      	movs	r1, #0
    STR R1, [R0]
 800305a:	6001      	str	r1, [r0, #0]

0800305c <ApplicationStart>:

ApplicationStart:
/* Copy the data segment initializers from flash to SRAM */
  ldr r0, =_sdata
 800305c:	480f      	ldr	r0, [pc, #60]	; (800309c <LoopForever+0xe>)
  ldr r1, =_edata
 800305e:	4910      	ldr	r1, [pc, #64]	; (80030a0 <LoopForever+0x12>)
  ldr r2, =_sidata
 8003060:	4a10      	ldr	r2, [pc, #64]	; (80030a4 <LoopForever+0x16>)
  movs r3, #0
 8003062:	2300      	movs	r3, #0
  b LoopCopyDataInit
 8003064:	e002      	b.n	800306c <LoopCopyDataInit>

08003066 <CopyDataInit>:

CopyDataInit:
  ldr r4, [r2, r3]
 8003066:	58d4      	ldr	r4, [r2, r3]
  str r4, [r0, r3]
 8003068:	50c4      	str	r4, [r0, r3]
  adds r3, r3, #4
 800306a:	3304      	adds	r3, #4

0800306c <LoopCopyDataInit>:

LoopCopyDataInit:
  adds r4, r0, r3
 800306c:	18c4      	adds	r4, r0, r3
  cmp r4, r1
 800306e:	428c      	cmp	r4, r1
  bcc CopyDataInit
 8003070:	d3f9      	bcc.n	8003066 <CopyDataInit>
  
/* Zero fill the bss segment. */
  ldr r2, =_sbss
 8003072:	4a0d      	ldr	r2, [pc, #52]	; (80030a8 <LoopForever+0x1a>)
  ldr r4, =_ebss
 8003074:	4c0d      	ldr	r4, [pc, #52]	; (80030ac <LoopForever+0x1e>)
  movs r3, #0
 8003076:	2300      	movs	r3, #0
  b LoopFillZerobss
 8003078:	e001      	b.n	800307e <LoopFillZerobss>

0800307a <FillZerobss>:

FillZerobss:
  str  r3, [r2]
 800307a:	6013      	str	r3, [r2, #0]
  adds r2, r2, #4
 800307c:	3204      	adds	r2, #4

0800307e <LoopFillZerobss>:

LoopFillZerobss:
  cmp r2, r4
 800307e:	42a2      	cmp	r2, r4
  bcc FillZerobss
 8003080:	d3fb      	bcc.n	800307a <FillZerobss>

/* Call the clock system intitialization function.*/
  bl  SystemInit
 8003082:	f7ff ffa9 	bl	8002fd8 <SystemInit>
/* Call static constructors */
  bl __libc_init_array
 8003086:	f000 f815 	bl	80030b4 <__libc_init_array>
/* Call the application's entry point.*/
  bl main
 800308a:	f7ff fe59 	bl	8002d40 <main>

0800308e <LoopForever>:

LoopForever:
    b LoopForever
 800308e:	e7fe      	b.n	800308e <LoopForever>
  ldr   r0, =_estack
 8003090:	20001800 	.word	0x20001800
    LDR R0,=0x40021018
 8003094:	40021018 	.word	0x40021018
    LDR R0,=0x40010000
 8003098:	40010000 	.word	0x40010000
  ldr r0, =_sdata
 800309c:	20000000 	.word	0x20000000
  ldr r1, =_edata
 80030a0:	20000008 	.word	0x20000008
  ldr r2, =_sidata
 80030a4:	080031cc 	.word	0x080031cc
  ldr r2, =_sbss
 80030a8:	20000008 	.word	0x20000008
  ldr r4, =_ebss
 80030ac:	20000ffc 	.word	0x20000ffc

080030b0 <ADC1_IRQHandler>:
 * @retval : None
*/
    .section .text.Default_Handler,"ax",%progbits
Default_Handler:
Infinite_Loop:
  b Infinite_Loop
 80030b0:	e7fe      	b.n	80030b0 <ADC1_IRQHandler>
	...

080030b4 <__libc_init_array>:
 80030b4:	b570      	push	{r4, r5, r6, lr}
 80030b6:	2600      	movs	r6, #0
 80030b8:	4d0c      	ldr	r5, [pc, #48]	; (80030ec <__libc_init_array+0x38>)
 80030ba:	4c0d      	ldr	r4, [pc, #52]	; (80030f0 <__libc_init_array+0x3c>)
 80030bc:	1b64      	subs	r4, r4, r5
 80030be:	10a4      	asrs	r4, r4, #2
 80030c0:	42a6      	cmp	r6, r4
 80030c2:	d109      	bne.n	80030d8 <__libc_init_array+0x24>
 80030c4:	2600      	movs	r6, #0
 80030c6:	f000 f82b 	bl	8003120 <_init>
 80030ca:	4d0a      	ldr	r5, [pc, #40]	; (80030f4 <__libc_init_array+0x40>)
 80030cc:	4c0a      	ldr	r4, [pc, #40]	; (80030f8 <__libc_init_array+0x44>)
 80030ce:	1b64      	subs	r4, r4, r5
 80030d0:	10a4      	asrs	r4, r4, #2
 80030d2:	42a6      	cmp	r6, r4
 80030d4:	d105      	bne.n	80030e2 <__libc_init_array+0x2e>
 80030d6:	bd70      	pop	{r4, r5, r6, pc}
 80030d8:	00b3      	lsls	r3, r6, #2
 80030da:	58eb      	ldr	r3, [r5, r3]
 80030dc:	4798      	blx	r3
 80030de:	3601      	adds	r6, #1
 80030e0:	e7ee      	b.n	80030c0 <__libc_init_array+0xc>
 80030e2:	00b3      	lsls	r3, r6, #2
 80030e4:	58eb      	ldr	r3, [r5, r3]
 80030e6:	4798      	blx	r3
 80030e8:	3601      	adds	r6, #1
 80030ea:	e7f2      	b.n	80030d2 <__libc_init_array+0x1e>
 80030ec:	080031c4 	.word	0x080031c4
 80030f0:	080031c4 	.word	0x080031c4
 80030f4:	080031c4 	.word	0x080031c4
 80030f8:	080031c8 	.word	0x080031c8

080030fc <memcpy>:
 80030fc:	2300      	movs	r3, #0
 80030fe:	b510      	push	{r4, lr}
 8003100:	429a      	cmp	r2, r3
 8003102:	d100      	bne.n	8003106 <memcpy+0xa>
 8003104:	bd10      	pop	{r4, pc}
 8003106:	5ccc      	ldrb	r4, [r1, r3]
 8003108:	54c4      	strb	r4, [r0, r3]
 800310a:	3301      	adds	r3, #1
 800310c:	e7f8      	b.n	8003100 <memcpy+0x4>

0800310e <memset>:
 800310e:	0003      	movs	r3, r0
 8003110:	1882      	adds	r2, r0, r2
 8003112:	4293      	cmp	r3, r2
 8003114:	d100      	bne.n	8003118 <memset+0xa>
 8003116:	4770      	bx	lr
 8003118:	7019      	strb	r1, [r3, #0]
 800311a:	3301      	adds	r3, #1
 800311c:	e7f9      	b.n	8003112 <memset+0x4>
	...

08003120 <_init>:
 8003120:	b5f8      	push	{r3, r4, r5, r6, r7, lr}
 8003122:	46c0      	nop			; (mov r8, r8)
 8003124:	bcf8      	pop	{r3, r4, r5, r6, r7}
 8003126:	bc08      	pop	{r3}
 8003128:	469e      	mov	lr, r3
 800312a:	4770      	bx	lr

0800312c <_fini>:
 800312c:	b5f8      	push	{r3, r4, r5, r6, r7, lr}
 800312e:	46c0      	nop			; (mov r8, r8)
 8003130:	bcf8      	pop	{r3, r4, r5, r6, r7}
 8003132:	bc08      	pop	{r3}
 8003134:	469e      	mov	lr, r3
 8003136:	4770      	bx	lr
